
../bootloader/build/pizza.kernel:	file format coff-x86-64

Disassembly of section .text:

0000133700001000 <_ZN42_$LT$$RF$T$u20$as$u20$core..fmt..Debug$GT$3fmt17hb0cc9c5a33cb5c0bE>:
133700001000: 49 89 d0                 	movq	%rdx, %r8
133700001003: 48 8b 01                 	movq	(%rcx), %rax
133700001006: 48 8b 51 08              	movq	0x8(%rcx), %rdx
13370000100a: 48 89 c1                 	movq	%rax, %rcx
13370000100d: e9 ee 16 00 00           	jmp	0x133700002700 <_ZN40_$LT$str$u20$as$u20$core..fmt..Debug$GT$3fmt17hc68f43e48969c541E>
133700001012: cc                       	int3
133700001013: cc                       	int3
133700001014: cc                       	int3
133700001015: cc                       	int3
133700001016: cc                       	int3
133700001017: cc                       	int3
133700001018: cc                       	int3
133700001019: cc                       	int3
13370000101a: cc                       	int3
13370000101b: cc                       	int3
13370000101c: cc                       	int3
13370000101d: cc                       	int3
13370000101e: cc                       	int3
13370000101f: cc                       	int3

0000133700001020 <_ZN4core3fmt3num50_$LT$impl$u20$core..fmt..Debug$u20$for$u20$u64$GT$3fmt17h99242127ffee3ab4E>:
133700001020: 8b 42 34                 	movl	0x34(%rdx), %eax
133700001023: a8 10                    	testb	$0x10, %al
133700001025: 0f 85 85 27 00 00        	jne	0x1337000037b0 <_ZN4core3fmt3num55_$LT$impl$u20$core..fmt..LowerHex$u20$for$u20$usize$GT$3fmt17h1e691191aba22781E>
13370000102b: a8 20                    	testb	$0x20, %al
13370000102d: 0f 85 2d 28 00 00        	jne	0x133700003860 <_ZN4core3fmt3num55_$LT$impl$u20$core..fmt..UpperHex$u20$for$u20$usize$GT$3fmt17hba906ac57025ed06E>
133700001033: e9 08 2b 00 00           	jmp	0x133700003b40 <_ZN4core3fmt3num3imp54_$LT$impl$u20$core..fmt..Display$u20$for$u20$usize$GT$3fmt17hef09a08323db3a66E>
133700001038: cc                       	int3
133700001039: cc                       	int3
13370000103a: cc                       	int3
13370000103b: cc                       	int3
13370000103c: cc                       	int3
13370000103d: cc                       	int3
13370000103e: cc                       	int3
13370000103f: cc                       	int3

0000133700001040 <_ZN4core3fmt5Write10write_char17hc800bacd31963ebcE>:
133700001040: 48 83 ec 28              	subq	$0x28, %rsp
133700001044: c7 44 24 24 00 00 00 00  	movl	$0x0, 0x24(%rsp)
13370000104c: 81 fa 80 00 00 00        	cmpl	$0x80, %edx
133700001052: 73 0f                    	jae	0x133700001063 <_ZN4core3fmt5Write10write_char17hc800bacd31963ebcE+0x23>
133700001054: 88 54 24 24              	movb	%dl, 0x24(%rsp)
133700001058: 41 b8 01 00 00 00        	movl	$0x1, %r8d
13370000105e: e9 88 00 00 00           	jmp	0x1337000010eb <_ZN4core3fmt5Write10write_char17hc800bacd31963ebcE+0xab>
133700001063: 89 d0                    	movl	%edx, %eax
133700001065: 81 fa 00 08 00 00        	cmpl	$0x800, %edx            # imm = 0x800
13370000106b: 73 1b                    	jae	0x133700001088 <_ZN4core3fmt5Write10write_char17hc800bacd31963ebcE+0x48>
13370000106d: c1 e8 06                 	shrl	$0x6, %eax
133700001070: 0c c0                    	orb	$-0x40, %al
133700001072: 88 44 24 24              	movb	%al, 0x24(%rsp)
133700001076: 80 e2 3f                 	andb	$0x3f, %dl
133700001079: 80 ca 80                 	orb	$-0x80, %dl
13370000107c: 88 54 24 25              	movb	%dl, 0x25(%rsp)
133700001080: 41 b8 02 00 00 00        	movl	$0x2, %r8d
133700001086: eb 63                    	jmp	0x1337000010eb <_ZN4core3fmt5Write10write_char17hc800bacd31963ebcE+0xab>
133700001088: 81 fa 00 00 01 00        	cmpl	$0x10000, %edx          # imm = 0x10000
13370000108e: 73 28                    	jae	0x1337000010b8 <_ZN4core3fmt5Write10write_char17hc800bacd31963ebcE+0x78>
133700001090: c1 e8 0c                 	shrl	$0xc, %eax
133700001093: 0c e0                    	orb	$-0x20, %al
133700001095: 88 44 24 24              	movb	%al, 0x24(%rsp)
133700001099: 89 d0                    	movl	%edx, %eax
13370000109b: c1 e8 06                 	shrl	$0x6, %eax
13370000109e: 24 3f                    	andb	$0x3f, %al
1337000010a0: 0c 80                    	orb	$-0x80, %al
1337000010a2: 88 44 24 25              	movb	%al, 0x25(%rsp)
1337000010a6: 80 e2 3f                 	andb	$0x3f, %dl
1337000010a9: 80 ca 80                 	orb	$-0x80, %dl
1337000010ac: 88 54 24 26              	movb	%dl, 0x26(%rsp)
1337000010b0: 41 b8 03 00 00 00        	movl	$0x3, %r8d
1337000010b6: eb 33                    	jmp	0x1337000010eb <_ZN4core3fmt5Write10write_char17hc800bacd31963ebcE+0xab>
1337000010b8: c1 e8 12                 	shrl	$0x12, %eax
1337000010bb: 0c f0                    	orb	$-0x10, %al
1337000010bd: 88 44 24 24              	movb	%al, 0x24(%rsp)
1337000010c1: 89 d0                    	movl	%edx, %eax
1337000010c3: c1 e8 0c                 	shrl	$0xc, %eax
1337000010c6: 24 3f                    	andb	$0x3f, %al
1337000010c8: 0c 80                    	orb	$-0x80, %al
1337000010ca: 88 44 24 25              	movb	%al, 0x25(%rsp)
1337000010ce: 89 d0                    	movl	%edx, %eax
1337000010d0: c1 e8 06                 	shrl	$0x6, %eax
1337000010d3: 24 3f                    	andb	$0x3f, %al
1337000010d5: 0c 80                    	orb	$-0x80, %al
1337000010d7: 88 44 24 26              	movb	%al, 0x26(%rsp)
1337000010db: 80 e2 3f                 	andb	$0x3f, %dl
1337000010de: 80 ca 80                 	orb	$-0x80, %dl
1337000010e1: 88 54 24 27              	movb	%dl, 0x27(%rsp)
1337000010e5: 41 b8 04 00 00 00        	movl	$0x4, %r8d
1337000010eb: 48 8d 54 24 24           	leaq	0x24(%rsp), %rdx
1337000010f0: e8 5b 05 00 00           	callq	0x133700001650 <_ZN57_$LT$serial..SerialWriter$u20$as$u20$core..fmt..Write$GT$9write_str17hf8399814d0171d88E>
1337000010f5: 90                       	nop
1337000010f6: 48 83 c4 28              	addq	$0x28, %rsp
1337000010fa: c3                       	retq
1337000010fb: cc                       	int3
1337000010fc: cc                       	int3
1337000010fd: cc                       	int3
1337000010fe: cc                       	int3
1337000010ff: cc                       	int3

0000133700001100 <_ZN4core3fmt5Write9write_fmt17h5a006828d067ef89E>:
133700001100: 49 89 d0                 	movq	%rdx, %r8
133700001103: 48 8d 15 06 3f 00 00     	leaq	0x3f06(%rip), %rdx      # 0x133700005010 <anon.e6ad878536b64e42fac3e86759bd8471.0>
13370000110a: e9 31 0a 00 00           	jmp	0x133700001b40 <_ZN4core3fmt5write17h51c28f1ed8b056c9E>
13370000110f: cc                       	int3

0000133700001110 <entry>:
133700001110: 41 56                    	pushq	%r14
133700001112: 56                       	pushq	%rsi
133700001113: 57                       	pushq	%rdi
133700001114: 53                       	pushq	%rbx
133700001115: 48 81 ec a8 00 00 00     	subq	$0xa8, %rsp
13370000111c: 48 89 ce                 	movq	%rcx, %rsi
13370000111f: e8 1c 02 00 00           	callq	0x133700001340 <_ZN6serial4init17h7f50517752aa564eE>
133700001124: 48 8d 15 15 3f 00 00     	leaq	0x3f15(%rip), %rdx      # 0x133700005040 <anon.e6ad878536b64e42fac3e86759bd8471.10>
13370000112b: 48 8d 7c 24 27           	leaq	0x27(%rsp), %rdi
133700001130: 41 b8 07 00 00 00        	movl	$0x7, %r8d
133700001136: 48 89 f9                 	movq	%rdi, %rcx
133700001139: e8 12 05 00 00           	callq	0x133700001650 <_ZN57_$LT$serial..SerialWriter$u20$as$u20$core..fmt..Write$GT$9write_str17hf8399814d0171d88E>
13370000113e: 48 89 74 24 68           	movq	%rsi, 0x68(%rsp)
133700001143: 48 8d 44 24 68           	leaq	0x68(%rsp), %rax
133700001148: 48 89 44 24 28           	movq	%rax, 0x28(%rsp)
13370000114d: 48 8d 05 cc fe ff ff     	leaq	-0x134(%rip), %rax      # 0x133700001020 <_ZN4core3fmt3num50_$LT$impl$u20$core..fmt..Debug$u20$for$u20$u64$GT$3fmt17h99242127ffee3ab4E>
133700001154: 48 89 44 24 30           	movq	%rax, 0x30(%rsp)
133700001159: 48 c7 44 24 70 02 00 00 00       	movq	$0x2, 0x70(%rsp)
133700001162: 48 c7 84 24 80 00 00 00 02 00 00 00      	movq	$0x2, 0x80(%rsp)
13370000116e: 48 c7 84 24 90 00 00 00 00 00 00 00      	movq	$0x0, 0x90(%rsp)
13370000117a: 48 b8 20 00 00 00 14 00 00 00    	movabsq	$0x1400000020, %rax # imm = 0x1400000020
133700001184: 48 89 84 24 98 00 00 00  	movq	%rax, 0x98(%rsp)
13370000118c: c6 84 24 a0 00 00 00 03  	movb	$0x3, 0xa0(%rsp)
133700001194: 48 8d 05 c5 3e 00 00     	leaq	0x3ec5(%rip), %rax      # 0x133700005060 <anon.e6ad878536b64e42fac3e86759bd8471.12>
13370000119b: 48 89 44 24 38           	movq	%rax, 0x38(%rsp)
1337000011a0: 48 c7 44 24 40 01 00 00 00       	movq	$0x1, 0x40(%rsp)
1337000011a9: 48 8d 5c 24 70           	leaq	0x70(%rsp), %rbx
1337000011ae: 48 89 5c 24 58           	movq	%rbx, 0x58(%rsp)
1337000011b3: 48 c7 44 24 60 01 00 00 00       	movq	$0x1, 0x60(%rsp)
1337000011bc: 4c 8d 74 24 28           	leaq	0x28(%rsp), %r14
1337000011c1: 4c 89 74 24 48           	movq	%r14, 0x48(%rsp)
1337000011c6: 48 c7 44 24 50 01 00 00 00       	movq	$0x1, 0x50(%rsp)
1337000011cf: 48 8d 15 3a 3e 00 00     	leaq	0x3e3a(%rip), %rdx      # 0x133700005010 <anon.e6ad878536b64e42fac3e86759bd8471.0>
1337000011d6: 4c 8d 44 24 38           	leaq	0x38(%rsp), %r8
1337000011db: 48 89 f9                 	movq	%rdi, %rcx
1337000011de: e8 5d 09 00 00           	callq	0x133700001b40 <_ZN4core3fmt5write17h51c28f1ed8b056c9E>
1337000011e3: 31 c0                    	xorl	%eax, %eax
1337000011e5: 0f 28 05 14 3e 00 00     	movaps	0x3e14(%rip), %xmm0     # 0x133700005000 <__xmm@0f750f750f750f750f750f750f750f75>
1337000011ec: 0f 1f 40 00              	nopl	(%rax)
1337000011f0: 0f 29 84 00 00 80 0b 00  	movaps	%xmm0, 0xb8000(%rax,%rax)
1337000011f8: 0f 29 84 00 10 80 0b 00  	movaps	%xmm0, 0xb8010(%rax,%rax)
133700001200: 0f 29 84 00 20 80 0b 00  	movaps	%xmm0, 0xb8020(%rax,%rax)
133700001208: 0f 29 84 00 30 80 0b 00  	movaps	%xmm0, 0xb8030(%rax,%rax)
133700001210: 0f 29 84 00 40 80 0b 00  	movaps	%xmm0, 0xb8040(%rax,%rax)
133700001218: 0f 29 84 00 50 80 0b 00  	movaps	%xmm0, 0xb8050(%rax,%rax)
133700001220: 0f 29 84 00 60 80 0b 00  	movaps	%xmm0, 0xb8060(%rax,%rax)
133700001228: 0f 29 84 00 70 80 0b 00  	movaps	%xmm0, 0xb8070(%rax,%rax)
133700001230: 0f 29 84 00 80 80 0b 00  	movaps	%xmm0, 0xb8080(%rax,%rax)
133700001238: 0f 29 84 00 90 80 0b 00  	movaps	%xmm0, 0xb8090(%rax,%rax)
133700001240: 48 83 c0 50              	addq	$0x50, %rax
133700001244: 48 3d d0 07 00 00        	cmpq	$0x7d0, %rax            # imm = 0x7D0
13370000124a: 75 a4                    	jne	0x1337000011f0 <entry+0xe0>
13370000124c: b8 01 00 00 00           	movl	$0x1, %eax
133700001251: f0                       	lock
133700001252: 0f c1 06                 	xaddl	%eax, (%rsi)
133700001255: 8b 4e 04                 	movl	0x4(%rsi), %ecx
133700001258: 39 c8                    	cmpl	%ecx, %eax
13370000125a: 74 0d                    	je	0x133700001269 <entry+0x159>
13370000125c: 0f 1f 40 00              	nopl	(%rax)
133700001260: f3 90                    	pause
133700001262: 8b 4e 04                 	movl	0x4(%rsi), %ecx
133700001265: 39 c8                    	cmpl	%ecx, %eax
133700001267: 75 f7                    	jne	0x133700001260 <entry+0x150>
133700001269: f0                       	lock
13370000126a: ff 46 04                 	incl	0x4(%rsi)
13370000126d: 48 8d 05 34 3e 00 00     	leaq	0x3e34(%rip), %rax      # 0x1337000050a8 <anon.e6ad878536b64e42fac3e86759bd8471.16>
133700001274: 48 89 44 24 28           	movq	%rax, 0x28(%rsp)
133700001279: 48 8d 05 80 fd ff ff     	leaq	-0x280(%rip), %rax      # 0x133700001000 <_ZN42_$LT$$RF$T$u20$as$u20$core..fmt..Debug$GT$3fmt17hb0cc9c5a33cb5c0bE>
133700001280: 48 89 44 24 30           	movq	%rax, 0x30(%rsp)
133700001285: 48 c7 44 24 70 02 00 00 00       	movq	$0x2, 0x70(%rsp)
13370000128e: 48 c7 84 24 80 00 00 00 02 00 00 00      	movq	$0x2, 0x80(%rsp)
13370000129a: 48 c7 84 24 90 00 00 00 00 00 00 00      	movq	$0x0, 0x90(%rsp)
1337000012a6: 48 b8 20 00 00 00 04 00 00 00    	movabsq	$0x400000020, %rax # imm = 0x400000020
1337000012b0: 48 89 84 24 98 00 00 00  	movq	%rax, 0x98(%rsp)
1337000012b8: c6 84 24 a0 00 00 00 03  	movb	$0x3, 0xa0(%rsp)
1337000012c0: 48 8d 05 b1 3d 00 00     	leaq	0x3db1(%rip), %rax      # 0x133700005078 <anon.e6ad878536b64e42fac3e86759bd8471.14>
1337000012c7: 48 89 44 24 38           	movq	%rax, 0x38(%rsp)
1337000012cc: 48 c7 44 24 40 02 00 00 00       	movq	$0x2, 0x40(%rsp)
1337000012d5: 48 89 5c 24 58           	movq	%rbx, 0x58(%rsp)
1337000012da: 48 c7 44 24 60 01 00 00 00       	movq	$0x1, 0x60(%rsp)
1337000012e3: 4c 89 74 24 48           	movq	%r14, 0x48(%rsp)
1337000012e8: 48 c7 44 24 50 01 00 00 00       	movq	$0x1, 0x50(%rsp)
1337000012f1: 48 8d 15 18 3d 00 00     	leaq	0x3d18(%rip), %rdx      # 0x133700005010 <anon.e6ad878536b64e42fac3e86759bd8471.0>
1337000012f8: 48 8d 4c 24 27           	leaq	0x27(%rsp), %rcx
1337000012fd: 4c 8d 44 24 38           	leaq	0x38(%rsp), %r8
133700001302: e8 39 08 00 00           	callq	0x133700001b40 <_ZN4core3fmt5write17h51c28f1ed8b056c9E>
133700001307: 66 0f 1f 84 00 00 00 00 00       	nopw	(%rax,%rax)
133700001310: fa                       	cli
133700001311: f4                       	hlt
133700001312: eb fc                    	jmp	0x133700001310 <entry+0x200>
133700001314: cc                       	int3
133700001315: cc                       	int3
133700001316: cc                       	int3
133700001317: cc                       	int3
133700001318: cc                       	int3
133700001319: cc                       	int3
13370000131a: cc                       	int3
13370000131b: cc                       	int3
13370000131c: cc                       	int3
13370000131d: cc                       	int3
13370000131e: cc                       	int3
13370000131f: cc                       	int3

0000133700001320 <rust_begin_unwind>:
133700001320: 50                       	pushq	%rax
133700001321: 66 66 66 66 66 66 2e 0f 1f 84 00 00 00 00 00     	nopw	%cs:(%rax,%rax)
133700001330: fa                       	cli
133700001331: f4                       	hlt
133700001332: eb fc                    	jmp	0x133700001330 <rust_begin_unwind+0x10>
133700001334: cc                       	int3
133700001335: cc                       	int3
133700001336: cc                       	int3
133700001337: cc                       	int3
133700001338: cc                       	int3
133700001339: cc                       	int3
13370000133a: cc                       	int3
13370000133b: cc                       	int3
13370000133c: cc                       	int3
13370000133d: cc                       	int3
13370000133e: cc                       	int3
13370000133f: cc                       	int3

0000133700001340 <_ZN6serial4init17h7f50517752aa564eE>:
133700001340: 48 83 ec 28              	subq	$0x28, %rsp
133700001344: b8 01 00 00 00           	movl	$0x1, %eax
133700001349: f0                       	lock
13370000134a: 0f c1 05 af 5c 00 00     	xaddl	%eax, 0x5caf(%rip)      # 0x133700007000 <_ZN6serial6SERIAL17h97ccbff675468156E>
133700001351: 8b 0d ad 5c 00 00        	movl	0x5cad(%rip), %ecx      # 0x133700007004 <_ZN6serial6SERIAL17h97ccbff675468156E+0x4>
133700001357: 39 c8                    	cmpl	%ecx, %eax
133700001359: 74 11                    	je	0x13370000136c <_ZN6serial4init17h7f50517752aa564eE+0x2c>
13370000135b: 0f 1f 44 00 00           	nopl	(%rax,%rax)
133700001360: f3 90                    	pause
133700001362: 8b 0d 9c 5c 00 00        	movl	0x5c9c(%rip), %ecx      # 0x133700007004 <_ZN6serial6SERIAL17h97ccbff675468156E+0x4>
133700001368: 39 c8                    	cmpl	%ecx, %eax
13370000136a: 75 f4                    	jne	0x133700001360 <_ZN6serial4init17h7f50517752aa564eE+0x20>
13370000136c: 0f b7 0c 25 00 04 00 00  	movzwl	0x400, %ecx
133700001374: 66 85 c9                 	testw	%cx, %cx
133700001377: 0f 84 9c 00 00 00        	je	0x133700001419 <_ZN6serial4init17h7f50517752aa564eE+0xd9>
13370000137d: 41 89 c8                 	movl	%ecx, %r8d
133700001380: 66 41 ff c0              	incw	%r8w
133700001384: 41 ba ff ff 00 00        	movl	$0xffff, %r10d          # imm = 0xFFFF
13370000138a: 45 0f 44 c2              	cmovel	%r10d, %r8d
13370000138e: 44 89 c2                 	movl	%r8d, %edx
133700001391: 31 c0                    	xorl	%eax, %eax
133700001393: ee                       	outb	%al, %dx
133700001394: 41 89 c9                 	movl	%ecx, %r9d
133700001397: 66 41 83 c1 03           	addw	$0x3, %r9w
13370000139c: 45 0f 42 ca              	cmovbl	%r10d, %r9d
1337000013a0: 44 89 ca                 	movl	%r9d, %edx
1337000013a3: b0 80                    	movb	$-0x80, %al
1337000013a5: ee                       	outb	%al, %dx
1337000013a6: 89 ca                    	movl	%ecx, %edx
1337000013a8: b0 01                    	movb	$0x1, %al
1337000013aa: ee                       	outb	%al, %dx
1337000013ab: 44 89 c2                 	movl	%r8d, %edx
1337000013ae: 31 c0                    	xorl	%eax, %eax
1337000013b0: ee                       	outb	%al, %dx
1337000013b1: 44 89 ca                 	movl	%r9d, %edx
1337000013b4: b0 03                    	movb	$0x3, %al
1337000013b6: ee                       	outb	%al, %dx
1337000013b7: 41 89 c8                 	movl	%ecx, %r8d
1337000013ba: 66 41 83 c0 04           	addw	$0x4, %r8w
1337000013bf: 45 0f 42 c2              	cmovbl	%r10d, %r8d
1337000013c3: 44 89 c2                 	movl	%r8d, %edx
1337000013c6: ee                       	outb	%al, %dx
1337000013c7: b0 1e                    	movb	$0x1e, %al
1337000013c9: ee                       	outb	%al, %dx
1337000013ca: 41 89 c9                 	movl	%ecx, %r9d
1337000013cd: 66 41 83 c1 05           	addw	$0x5, %r9w
1337000013d2: 45 0f 42 ca              	cmovbl	%r10d, %r9d
1337000013d6: 66 2e 0f 1f 84 00 00 00 00 00    	nopw	%cs:(%rax,%rax)
1337000013e0: 44 89 ca                 	movl	%r9d, %edx
1337000013e3: ec                       	inb	%dx, %al
1337000013e4: a8 20                    	testb	$0x20, %al
1337000013e6: 74 f8                    	je	0x1337000013e0 <_ZN6serial4init17h7f50517752aa564eE+0xa0>
1337000013e8: 89 ca                    	movl	%ecx, %edx
1337000013ea: b0 4d                    	movb	$0x4d, %al
1337000013ec: ee                       	outb	%al, %dx
1337000013ed: 0f 1f 00                 	nopl	(%rax)
1337000013f0: 44 89 ca                 	movl	%r9d, %edx
1337000013f3: ec                       	inb	%dx, %al
1337000013f4: a8 01                    	testb	$0x1, %al
1337000013f6: 74 f8                    	je	0x1337000013f0 <_ZN6serial4init17h7f50517752aa564eE+0xb0>
1337000013f8: 89 ca                    	movl	%ecx, %edx
1337000013fa: ec                       	inb	%dx, %al
1337000013fb: 3c 4d                    	cmpb	$0x4d, %al
1337000013fd: 0f 85 2e 02 00 00        	jne	0x133700001631 <_ZN6serial4init17h7f50517752aa564eE+0x2f1>
133700001403: 44 89 c2                 	movl	%r8d, %edx
133700001406: b0 0f                    	movb	$0xf, %al
133700001408: ee                       	outb	%al, %dx
133700001409: 66 c7 05 f6 5b 00 00 01 00       	movw	$0x1, 0x5bf6(%rip) # 0x133700007008 <_ZN6serial6SERIAL17h97ccbff675468156E+0x8>
133700001412: 66 89 0d f1 5b 00 00     	movw	%cx, 0x5bf1(%rip)       # 0x13370000700a <_ZN6serial6SERIAL17h97ccbff675468156E+0xa>
133700001419: 0f b7 0c 25 02 04 00 00  	movzwl	0x402, %ecx
133700001421: 66 85 c9                 	testw	%cx, %cx
133700001424: 0f 84 9f 00 00 00        	je	0x1337000014c9 <_ZN6serial4init17h7f50517752aa564eE+0x189>
13370000142a: 41 89 c8                 	movl	%ecx, %r8d
13370000142d: 66 41 ff c0              	incw	%r8w
133700001431: 41 ba ff ff 00 00        	movl	$0xffff, %r10d          # imm = 0xFFFF
133700001437: 45 0f 44 c2              	cmovel	%r10d, %r8d
13370000143b: 44 89 c2                 	movl	%r8d, %edx
13370000143e: 31 c0                    	xorl	%eax, %eax
133700001440: ee                       	outb	%al, %dx
133700001441: 41 89 c9                 	movl	%ecx, %r9d
133700001444: 66 41 83 c1 03           	addw	$0x3, %r9w
133700001449: 45 0f 42 ca              	cmovbl	%r10d, %r9d
13370000144d: 44 89 ca                 	movl	%r9d, %edx
133700001450: b0 80                    	movb	$-0x80, %al
133700001452: ee                       	outb	%al, %dx
133700001453: 89 ca                    	movl	%ecx, %edx
133700001455: b0 01                    	movb	$0x1, %al
133700001457: ee                       	outb	%al, %dx
133700001458: 44 89 c2                 	movl	%r8d, %edx
13370000145b: 31 c0                    	xorl	%eax, %eax
13370000145d: ee                       	outb	%al, %dx
13370000145e: 44 89 ca                 	movl	%r9d, %edx
133700001461: b0 03                    	movb	$0x3, %al
133700001463: ee                       	outb	%al, %dx
133700001464: 41 89 c8                 	movl	%ecx, %r8d
133700001467: 66 41 83 c0 04           	addw	$0x4, %r8w
13370000146c: 45 0f 42 c2              	cmovbl	%r10d, %r8d
133700001470: 44 89 c2                 	movl	%r8d, %edx
133700001473: ee                       	outb	%al, %dx
133700001474: b0 1e                    	movb	$0x1e, %al
133700001476: ee                       	outb	%al, %dx
133700001477: 41 89 c9                 	movl	%ecx, %r9d
13370000147a: 66 41 83 c1 05           	addw	$0x5, %r9w
13370000147f: 45 0f 42 ca              	cmovbl	%r10d, %r9d
133700001483: 66 66 66 66 2e 0f 1f 84 00 00 00 00 00   	nopw	%cs:(%rax,%rax)
133700001490: 44 89 ca                 	movl	%r9d, %edx
133700001493: ec                       	inb	%dx, %al
133700001494: a8 20                    	testb	$0x20, %al
133700001496: 74 f8                    	je	0x133700001490 <_ZN6serial4init17h7f50517752aa564eE+0x150>
133700001498: 89 ca                    	movl	%ecx, %edx
13370000149a: b0 4d                    	movb	$0x4d, %al
13370000149c: ee                       	outb	%al, %dx
13370000149d: 0f 1f 00                 	nopl	(%rax)
1337000014a0: 44 89 ca                 	movl	%r9d, %edx
1337000014a3: ec                       	inb	%dx, %al
1337000014a4: a8 01                    	testb	$0x1, %al
1337000014a6: 74 f8                    	je	0x1337000014a0 <_ZN6serial4init17h7f50517752aa564eE+0x160>
1337000014a8: 89 ca                    	movl	%ecx, %edx
1337000014aa: ec                       	inb	%dx, %al
1337000014ab: 3c 4d                    	cmpb	$0x4d, %al
1337000014ad: 0f 85 7e 01 00 00        	jne	0x133700001631 <_ZN6serial4init17h7f50517752aa564eE+0x2f1>
1337000014b3: 44 89 c2                 	movl	%r8d, %edx
1337000014b6: b0 0f                    	movb	$0xf, %al
1337000014b8: ee                       	outb	%al, %dx
1337000014b9: 66 c7 05 4a 5b 00 00 01 00       	movw	$0x1, 0x5b4a(%rip) # 0x13370000700c <_ZN6serial6SERIAL17h97ccbff675468156E+0xc>
1337000014c2: 66 89 0d 45 5b 00 00     	movw	%cx, 0x5b45(%rip)       # 0x13370000700e <_ZN6serial6SERIAL17h97ccbff675468156E+0xe>
1337000014c9: 0f b7 0c 25 04 04 00 00  	movzwl	0x404, %ecx
1337000014d1: 66 85 c9                 	testw	%cx, %cx
1337000014d4: 0f 84 9f 00 00 00        	je	0x133700001579 <_ZN6serial4init17h7f50517752aa564eE+0x239>
1337000014da: 41 89 c8                 	movl	%ecx, %r8d
1337000014dd: 66 41 ff c0              	incw	%r8w
1337000014e1: 41 ba ff ff 00 00        	movl	$0xffff, %r10d          # imm = 0xFFFF
1337000014e7: 45 0f 44 c2              	cmovel	%r10d, %r8d
1337000014eb: 44 89 c2                 	movl	%r8d, %edx
1337000014ee: 31 c0                    	xorl	%eax, %eax
1337000014f0: ee                       	outb	%al, %dx
1337000014f1: 41 89 c9                 	movl	%ecx, %r9d
1337000014f4: 66 41 83 c1 03           	addw	$0x3, %r9w
1337000014f9: 45 0f 42 ca              	cmovbl	%r10d, %r9d
1337000014fd: 44 89 ca                 	movl	%r9d, %edx
133700001500: b0 80                    	movb	$-0x80, %al
133700001502: ee                       	outb	%al, %dx
133700001503: 89 ca                    	movl	%ecx, %edx
133700001505: b0 01                    	movb	$0x1, %al
133700001507: ee                       	outb	%al, %dx
133700001508: 44 89 c2                 	movl	%r8d, %edx
13370000150b: 31 c0                    	xorl	%eax, %eax
13370000150d: ee                       	outb	%al, %dx
13370000150e: 44 89 ca                 	movl	%r9d, %edx
133700001511: b0 03                    	movb	$0x3, %al
133700001513: ee                       	outb	%al, %dx
133700001514: 41 89 c8                 	movl	%ecx, %r8d
133700001517: 66 41 83 c0 04           	addw	$0x4, %r8w
13370000151c: 45 0f 42 c2              	cmovbl	%r10d, %r8d
133700001520: 44 89 c2                 	movl	%r8d, %edx
133700001523: ee                       	outb	%al, %dx
133700001524: b0 1e                    	movb	$0x1e, %al
133700001526: ee                       	outb	%al, %dx
133700001527: 41 89 c9                 	movl	%ecx, %r9d
13370000152a: 66 41 83 c1 05           	addw	$0x5, %r9w
13370000152f: 45 0f 42 ca              	cmovbl	%r10d, %r9d
133700001533: 66 66 66 66 2e 0f 1f 84 00 00 00 00 00   	nopw	%cs:(%rax,%rax)
133700001540: 44 89 ca                 	movl	%r9d, %edx
133700001543: ec                       	inb	%dx, %al
133700001544: a8 20                    	testb	$0x20, %al
133700001546: 74 f8                    	je	0x133700001540 <_ZN6serial4init17h7f50517752aa564eE+0x200>
133700001548: 89 ca                    	movl	%ecx, %edx
13370000154a: b0 4d                    	movb	$0x4d, %al
13370000154c: ee                       	outb	%al, %dx
13370000154d: 0f 1f 00                 	nopl	(%rax)
133700001550: 44 89 ca                 	movl	%r9d, %edx
133700001553: ec                       	inb	%dx, %al
133700001554: a8 01                    	testb	$0x1, %al
133700001556: 74 f8                    	je	0x133700001550 <_ZN6serial4init17h7f50517752aa564eE+0x210>
133700001558: 89 ca                    	movl	%ecx, %edx
13370000155a: ec                       	inb	%dx, %al
13370000155b: 3c 4d                    	cmpb	$0x4d, %al
13370000155d: 0f 85 ce 00 00 00        	jne	0x133700001631 <_ZN6serial4init17h7f50517752aa564eE+0x2f1>
133700001563: 44 89 c2                 	movl	%r8d, %edx
133700001566: b0 0f                    	movb	$0xf, %al
133700001568: ee                       	outb	%al, %dx
133700001569: 66 c7 05 9e 5a 00 00 01 00       	movw	$0x1, 0x5a9e(%rip) # 0x133700007010 <_ZN6serial6SERIAL17h97ccbff675468156E+0x10>
133700001572: 66 89 0d 99 5a 00 00     	movw	%cx, 0x5a99(%rip)       # 0x133700007012 <_ZN6serial6SERIAL17h97ccbff675468156E+0x12>
133700001579: 0f b7 0c 25 06 04 00 00  	movzwl	0x406, %ecx
133700001581: 66 85 c9                 	testw	%cx, %cx
133700001584: 0f 84 9b 00 00 00        	je	0x133700001625 <_ZN6serial4init17h7f50517752aa564eE+0x2e5>
13370000158a: 41 89 c8                 	movl	%ecx, %r8d
13370000158d: 66 41 ff c0              	incw	%r8w
133700001591: 41 ba ff ff 00 00        	movl	$0xffff, %r10d          # imm = 0xFFFF
133700001597: 45 0f 44 c2              	cmovel	%r10d, %r8d
13370000159b: 44 89 c2                 	movl	%r8d, %edx
13370000159e: 31 c0                    	xorl	%eax, %eax
1337000015a0: ee                       	outb	%al, %dx
1337000015a1: 41 89 c9                 	movl	%ecx, %r9d
1337000015a4: 66 41 83 c1 03           	addw	$0x3, %r9w
1337000015a9: 45 0f 42 ca              	cmovbl	%r10d, %r9d
1337000015ad: 44 89 ca                 	movl	%r9d, %edx
1337000015b0: b0 80                    	movb	$-0x80, %al
1337000015b2: ee                       	outb	%al, %dx
1337000015b3: 89 ca                    	movl	%ecx, %edx
1337000015b5: b0 01                    	movb	$0x1, %al
1337000015b7: ee                       	outb	%al, %dx
1337000015b8: 44 89 c2                 	movl	%r8d, %edx
1337000015bb: 31 c0                    	xorl	%eax, %eax
1337000015bd: ee                       	outb	%al, %dx
1337000015be: 44 89 ca                 	movl	%r9d, %edx
1337000015c1: b0 03                    	movb	$0x3, %al
1337000015c3: ee                       	outb	%al, %dx
1337000015c4: 41 89 c8                 	movl	%ecx, %r8d
1337000015c7: 66 41 83 c0 04           	addw	$0x4, %r8w
1337000015cc: 45 0f 42 c2              	cmovbl	%r10d, %r8d
1337000015d0: 44 89 c2                 	movl	%r8d, %edx
1337000015d3: ee                       	outb	%al, %dx
1337000015d4: b0 1e                    	movb	$0x1e, %al
1337000015d6: ee                       	outb	%al, %dx
1337000015d7: 41 89 c9                 	movl	%ecx, %r9d
1337000015da: 66 41 83 c1 05           	addw	$0x5, %r9w
1337000015df: 45 0f 42 ca              	cmovbl	%r10d, %r9d
1337000015e3: 66 66 66 66 2e 0f 1f 84 00 00 00 00 00   	nopw	%cs:(%rax,%rax)
1337000015f0: 44 89 ca                 	movl	%r9d, %edx
1337000015f3: ec                       	inb	%dx, %al
1337000015f4: a8 20                    	testb	$0x20, %al
1337000015f6: 74 f8                    	je	0x1337000015f0 <_ZN6serial4init17h7f50517752aa564eE+0x2b0>
1337000015f8: 89 ca                    	movl	%ecx, %edx
1337000015fa: b0 4d                    	movb	$0x4d, %al
1337000015fc: ee                       	outb	%al, %dx
1337000015fd: 0f 1f 00                 	nopl	(%rax)
133700001600: 44 89 ca                 	movl	%r9d, %edx
133700001603: ec                       	inb	%dx, %al
133700001604: a8 01                    	testb	$0x1, %al
133700001606: 74 f8                    	je	0x133700001600 <_ZN6serial4init17h7f50517752aa564eE+0x2c0>
133700001608: 89 ca                    	movl	%ecx, %edx
13370000160a: ec                       	inb	%dx, %al
13370000160b: 3c 4d                    	cmpb	$0x4d, %al
13370000160d: 75 22                    	jne	0x133700001631 <_ZN6serial4init17h7f50517752aa564eE+0x2f1>
13370000160f: 44 89 c2                 	movl	%r8d, %edx
133700001612: b0 0f                    	movb	$0xf, %al
133700001614: ee                       	outb	%al, %dx
133700001615: 66 c7 05 f6 59 00 00 01 00       	movw	$0x1, 0x59f6(%rip) # 0x133700007014 <_ZN6serial6SERIAL17h97ccbff675468156E+0x14>
13370000161e: 66 89 0d f1 59 00 00     	movw	%cx, 0x59f1(%rip)       # 0x133700007016 <_ZN6serial6SERIAL17h97ccbff675468156E+0x16>
133700001625: f0                       	lock
133700001626: ff 05 d8 59 00 00        	incl	0x59d8(%rip)            # 0x133700007004 <_ZN6serial6SERIAL17h97ccbff675468156E+0x4>
13370000162c: 48 83 c4 28              	addq	$0x28, %rsp
133700001630: c3                       	retq
133700001631: 48 8d 0d 80 3a 00 00     	leaq	0x3a80(%rip), %rcx      # 0x1337000050b8 <anon.5db9db4253937330d885d74ada4ec09f.0>
133700001638: 4c 8d 05 d1 3a 00 00     	leaq	0x3ad1(%rip), %r8       # 0x133700005110 <anon.5db9db4253937330d885d74ada4ec09f.2>
13370000163f: ba 25 00 00 00           	movl	$0x25, %edx
133700001644: e8 17 28 00 00           	callq	0x133700003e60 <_ZN4core9panicking5panic17h9dca278fc493133fE>
133700001649: cc                       	int3
13370000164a: cc                       	int3
13370000164b: cc                       	int3
13370000164c: cc                       	int3
13370000164d: cc                       	int3
13370000164e: cc                       	int3
13370000164f: cc                       	int3

0000133700001650 <_ZN57_$LT$serial..SerialWriter$u20$as$u20$core..fmt..Write$GT$9write_str17hf8399814d0171d88E>:
133700001650: 56                       	pushq	%rsi
133700001651: b8 01 00 00 00           	movl	$0x1, %eax
133700001656: f0                       	lock
133700001657: 0f c1 05 a2 59 00 00     	xaddl	%eax, 0x59a2(%rip)      # 0x133700007000 <_ZN6serial6SERIAL17h97ccbff675468156E>
13370000165e: 48 89 d1                 	movq	%rdx, %rcx
133700001661: 8b 15 9d 59 00 00        	movl	0x599d(%rip), %edx      # 0x133700007004 <_ZN6serial6SERIAL17h97ccbff675468156E+0x4>
133700001667: 39 d0                    	cmpl	%edx, %eax
133700001669: 74 11                    	je	0x13370000167c <_ZN57_$LT$serial..SerialWriter$u20$as$u20$core..fmt..Write$GT$9write_str17hf8399814d0171d88E+0x2c>
13370000166b: 0f 1f 44 00 00           	nopl	(%rax,%rax)
133700001670: f3 90                    	pause
133700001672: 8b 15 8c 59 00 00        	movl	0x598c(%rip), %edx      # 0x133700007004 <_ZN6serial6SERIAL17h97ccbff675468156E+0x4>
133700001678: 39 d0                    	cmpl	%edx, %eax
13370000167a: 75 f4                    	jne	0x133700001670 <_ZN57_$LT$serial..SerialWriter$u20$as$u20$core..fmt..Write$GT$9write_str17hf8399814d0171d88E+0x20>
13370000167c: 4d 85 c0                 	testq	%r8, %r8
13370000167f: 0f 84 fc 01 00 00        	je	0x133700001881 <_ZN57_$LT$serial..SerialWriter$u20$as$u20$core..fmt..Write$GT$9write_str17hf8399814d0171d88E+0x231>
133700001685: 49 01 c8                 	addq	%rcx, %r8
133700001688: be ff ff 00 00           	movl	$0xffff, %esi           # imm = 0xFFFF
13370000168d: eb 13                    	jmp	0x1337000016a2 <_ZN57_$LT$serial..SerialWriter$u20$as$u20$core..fmt..Write$GT$9write_str17hf8399814d0171d88E+0x52>
13370000168f: 90                       	nop
133700001690: 44 89 ca                 	movl	%r9d, %edx
133700001693: b0 0a                    	movb	$0xa, %al
133700001695: ee                       	outb	%al, %dx
133700001696: 48 ff c1                 	incq	%rcx
133700001699: 4c 39 c1                 	cmpq	%r8, %rcx
13370000169c: 0f 84 df 01 00 00        	je	0x133700001881 <_ZN57_$LT$serial..SerialWriter$u20$as$u20$core..fmt..Write$GT$9write_str17hf8399814d0171d88E+0x231>
1337000016a2: 80 3d 5f 59 00 00 01     	cmpb	$0x1, 0x595f(%rip)      # 0x133700007008 <_ZN6serial6SERIAL17h97ccbff675468156E+0x8>
1337000016a9: 0f 84 81 00 00 00        	je	0x133700001730 <_ZN57_$LT$serial..SerialWriter$u20$as$u20$core..fmt..Write$GT$9write_str17hf8399814d0171d88E+0xe0>
1337000016af: 80 3d 56 59 00 00 01     	cmpb	$0x1, 0x5956(%rip)      # 0x13370000700c <_ZN6serial6SERIAL17h97ccbff675468156E+0xc>
1337000016b6: 0f 84 e0 00 00 00        	je	0x13370000179c <_ZN57_$LT$serial..SerialWriter$u20$as$u20$core..fmt..Write$GT$9write_str17hf8399814d0171d88E+0x14c>
1337000016bc: 80 3d 4d 59 00 00 01     	cmpb	$0x1, 0x594d(%rip)      # 0x133700007010 <_ZN6serial6SERIAL17h97ccbff675468156E+0x10>
1337000016c3: 0f 84 43 01 00 00        	je	0x13370000180c <_ZN57_$LT$serial..SerialWriter$u20$as$u20$core..fmt..Write$GT$9write_str17hf8399814d0171d88E+0x1bc>
1337000016c9: 80 3d 44 59 00 00 01     	cmpb	$0x1, 0x5944(%rip)      # 0x133700007014 <_ZN6serial6SERIAL17h97ccbff675468156E+0x14>
1337000016d0: 75 c4                    	jne	0x133700001696 <_ZN57_$LT$serial..SerialWriter$u20$as$u20$core..fmt..Write$GT$9write_str17hf8399814d0171d88E+0x46>
1337000016d2: 44 0f b7 0d 3c 59 00 00  	movzwl	0x593c(%rip), %r9d      # 0x133700007016 <_ZN6serial6SERIAL17h97ccbff675468156E+0x16>
1337000016da: 44 0f b6 19              	movzbl	(%rcx), %r11d
1337000016de: 45 89 ca                 	movl	%r9d, %r10d
1337000016e1: 66 41 83 c2 05           	addw	$0x5, %r10w
1337000016e6: 44 0f 42 d6              	cmovbl	%esi, %r10d
1337000016ea: 41 80 fb 0a              	cmpb	$0xa, %r11b
1337000016ee: 75 20                    	jne	0x133700001710 <_ZN57_$LT$serial..SerialWriter$u20$as$u20$core..fmt..Write$GT$9write_str17hf8399814d0171d88E+0xc0>
1337000016f0: 44 89 d2                 	movl	%r10d, %edx
1337000016f3: ec                       	inb	%dx, %al
1337000016f4: a8 20                    	testb	$0x20, %al
1337000016f6: 74 f8                    	je	0x1337000016f0 <_ZN57_$LT$serial..SerialWriter$u20$as$u20$core..fmt..Write$GT$9write_str17hf8399814d0171d88E+0xa0>
1337000016f8: 44 89 ca                 	movl	%r9d, %edx
1337000016fb: b0 0d                    	movb	$0xd, %al
1337000016fd: ee                       	outb	%al, %dx
1337000016fe: 66 90                    	nop
133700001700: 44 89 d2                 	movl	%r10d, %edx
133700001703: ec                       	inb	%dx, %al
133700001704: a8 20                    	testb	$0x20, %al
133700001706: 74 f8                    	je	0x133700001700 <_ZN57_$LT$serial..SerialWriter$u20$as$u20$core..fmt..Write$GT$9write_str17hf8399814d0171d88E+0xb0>
133700001708: eb 86                    	jmp	0x133700001690 <_ZN57_$LT$serial..SerialWriter$u20$as$u20$core..fmt..Write$GT$9write_str17hf8399814d0171d88E+0x40>
13370000170a: 66 0f 1f 44 00 00        	nopw	(%rax,%rax)
133700001710: 44 89 d2                 	movl	%r10d, %edx
133700001713: ec                       	inb	%dx, %al
133700001714: a8 20                    	testb	$0x20, %al
133700001716: 74 f8                    	je	0x133700001710 <_ZN57_$LT$serial..SerialWriter$u20$as$u20$core..fmt..Write$GT$9write_str17hf8399814d0171d88E+0xc0>
133700001718: 44 89 ca                 	movl	%r9d, %edx
13370000171b: 44 89 d8                 	movl	%r11d, %eax
13370000171e: ee                       	outb	%al, %dx
13370000171f: e9 72 ff ff ff           	jmp	0x133700001696 <_ZN57_$LT$serial..SerialWriter$u20$as$u20$core..fmt..Write$GT$9write_str17hf8399814d0171d88E+0x46>
133700001724: 66 66 66 2e 0f 1f 84 00 00 00 00 00      	nopw	%cs:(%rax,%rax)
133700001730: 44 0f b7 0d d2 58 00 00  	movzwl	0x58d2(%rip), %r9d      # 0x13370000700a <_ZN6serial6SERIAL17h97ccbff675468156E+0xa>
133700001738: 44 0f b6 19              	movzbl	(%rcx), %r11d
13370000173c: 45 89 ca                 	movl	%r9d, %r10d
13370000173f: 66 41 83 c2 05           	addw	$0x5, %r10w
133700001744: 44 0f 42 d6              	cmovbl	%esi, %r10d
133700001748: 41 80 fb 0a              	cmpb	$0xa, %r11b
13370000174c: 75 32                    	jne	0x133700001780 <_ZN57_$LT$serial..SerialWriter$u20$as$u20$core..fmt..Write$GT$9write_str17hf8399814d0171d88E+0x130>
13370000174e: 66 90                    	nop
133700001750: 44 89 d2                 	movl	%r10d, %edx
133700001753: ec                       	inb	%dx, %al
133700001754: a8 20                    	testb	$0x20, %al
133700001756: 74 f8                    	je	0x133700001750 <_ZN57_$LT$serial..SerialWriter$u20$as$u20$core..fmt..Write$GT$9write_str17hf8399814d0171d88E+0x100>
133700001758: 44 89 ca                 	movl	%r9d, %edx
13370000175b: b0 0d                    	movb	$0xd, %al
13370000175d: ee                       	outb	%al, %dx
13370000175e: 66 90                    	nop
133700001760: 44 89 d2                 	movl	%r10d, %edx
133700001763: ec                       	inb	%dx, %al
133700001764: a8 20                    	testb	$0x20, %al
133700001766: 74 f8                    	je	0x133700001760 <_ZN57_$LT$serial..SerialWriter$u20$as$u20$core..fmt..Write$GT$9write_str17hf8399814d0171d88E+0x110>
133700001768: 44 89 ca                 	movl	%r9d, %edx
13370000176b: b0 0a                    	movb	$0xa, %al
13370000176d: ee                       	outb	%al, %dx
13370000176e: 80 3d 97 58 00 00 01     	cmpb	$0x1, 0x5897(%rip)      # 0x13370000700c <_ZN6serial6SERIAL17h97ccbff675468156E+0xc>
133700001775: 0f 85 41 ff ff ff        	jne	0x1337000016bc <_ZN57_$LT$serial..SerialWriter$u20$as$u20$core..fmt..Write$GT$9write_str17hf8399814d0171d88E+0x6c>
13370000177b: eb 1f                    	jmp	0x13370000179c <_ZN57_$LT$serial..SerialWriter$u20$as$u20$core..fmt..Write$GT$9write_str17hf8399814d0171d88E+0x14c>
13370000177d: 0f 1f 00                 	nopl	(%rax)
133700001780: 44 89 d2                 	movl	%r10d, %edx
133700001783: ec                       	inb	%dx, %al
133700001784: a8 20                    	testb	$0x20, %al
133700001786: 74 f8                    	je	0x133700001780 <_ZN57_$LT$serial..SerialWriter$u20$as$u20$core..fmt..Write$GT$9write_str17hf8399814d0171d88E+0x130>
133700001788: 44 89 ca                 	movl	%r9d, %edx
13370000178b: 44 89 d8                 	movl	%r11d, %eax
13370000178e: ee                       	outb	%al, %dx
13370000178f: 80 3d 76 58 00 00 01     	cmpb	$0x1, 0x5876(%rip)      # 0x13370000700c <_ZN6serial6SERIAL17h97ccbff675468156E+0xc>
133700001796: 0f 85 20 ff ff ff        	jne	0x1337000016bc <_ZN57_$LT$serial..SerialWriter$u20$as$u20$core..fmt..Write$GT$9write_str17hf8399814d0171d88E+0x6c>
13370000179c: 44 0f b7 0d 6a 58 00 00  	movzwl	0x586a(%rip), %r9d      # 0x13370000700e <_ZN6serial6SERIAL17h97ccbff675468156E+0xe>
1337000017a4: 44 0f b6 19              	movzbl	(%rcx), %r11d
1337000017a8: 45 89 ca                 	movl	%r9d, %r10d
1337000017ab: 66 41 83 c2 05           	addw	$0x5, %r10w
1337000017b0: 44 0f 42 d6              	cmovbl	%esi, %r10d
1337000017b4: 41 80 fb 0a              	cmpb	$0xa, %r11b
1337000017b8: 75 36                    	jne	0x1337000017f0 <_ZN57_$LT$serial..SerialWriter$u20$as$u20$core..fmt..Write$GT$9write_str17hf8399814d0171d88E+0x1a0>
1337000017ba: 66 0f 1f 44 00 00        	nopw	(%rax,%rax)
1337000017c0: 44 89 d2                 	movl	%r10d, %edx
1337000017c3: ec                       	inb	%dx, %al
1337000017c4: a8 20                    	testb	$0x20, %al
1337000017c6: 74 f8                    	je	0x1337000017c0 <_ZN57_$LT$serial..SerialWriter$u20$as$u20$core..fmt..Write$GT$9write_str17hf8399814d0171d88E+0x170>
1337000017c8: 44 89 ca                 	movl	%r9d, %edx
1337000017cb: b0 0d                    	movb	$0xd, %al
1337000017cd: ee                       	outb	%al, %dx
1337000017ce: 66 90                    	nop
1337000017d0: 44 89 d2                 	movl	%r10d, %edx
1337000017d3: ec                       	inb	%dx, %al
1337000017d4: a8 20                    	testb	$0x20, %al
1337000017d6: 74 f8                    	je	0x1337000017d0 <_ZN57_$LT$serial..SerialWriter$u20$as$u20$core..fmt..Write$GT$9write_str17hf8399814d0171d88E+0x180>
1337000017d8: 44 89 ca                 	movl	%r9d, %edx
1337000017db: b0 0a                    	movb	$0xa, %al
1337000017dd: ee                       	outb	%al, %dx
1337000017de: 80 3d 2b 58 00 00 01     	cmpb	$0x1, 0x582b(%rip)      # 0x133700007010 <_ZN6serial6SERIAL17h97ccbff675468156E+0x10>
1337000017e5: 0f 85 de fe ff ff        	jne	0x1337000016c9 <_ZN57_$LT$serial..SerialWriter$u20$as$u20$core..fmt..Write$GT$9write_str17hf8399814d0171d88E+0x79>
1337000017eb: eb 1f                    	jmp	0x13370000180c <_ZN57_$LT$serial..SerialWriter$u20$as$u20$core..fmt..Write$GT$9write_str17hf8399814d0171d88E+0x1bc>
1337000017ed: 0f 1f 00                 	nopl	(%rax)
1337000017f0: 44 89 d2                 	movl	%r10d, %edx
1337000017f3: ec                       	inb	%dx, %al
1337000017f4: a8 20                    	testb	$0x20, %al
1337000017f6: 74 f8                    	je	0x1337000017f0 <_ZN57_$LT$serial..SerialWriter$u20$as$u20$core..fmt..Write$GT$9write_str17hf8399814d0171d88E+0x1a0>
1337000017f8: 44 89 ca                 	movl	%r9d, %edx
1337000017fb: 44 89 d8                 	movl	%r11d, %eax
1337000017fe: ee                       	outb	%al, %dx
1337000017ff: 80 3d 0a 58 00 00 01     	cmpb	$0x1, 0x580a(%rip)      # 0x133700007010 <_ZN6serial6SERIAL17h97ccbff675468156E+0x10>
133700001806: 0f 85 bd fe ff ff        	jne	0x1337000016c9 <_ZN57_$LT$serial..SerialWriter$u20$as$u20$core..fmt..Write$GT$9write_str17hf8399814d0171d88E+0x79>
13370000180c: 44 0f b7 0d fe 57 00 00  	movzwl	0x57fe(%rip), %r9d      # 0x133700007012 <_ZN6serial6SERIAL17h97ccbff675468156E+0x12>
133700001814: 44 0f b6 19              	movzbl	(%rcx), %r11d
133700001818: 45 89 ca                 	movl	%r9d, %r10d
13370000181b: 66 41 83 c2 05           	addw	$0x5, %r10w
133700001820: 44 0f 42 d6              	cmovbl	%esi, %r10d
133700001824: 41 80 fb 0a              	cmpb	$0xa, %r11b
133700001828: 75 36                    	jne	0x133700001860 <_ZN57_$LT$serial..SerialWriter$u20$as$u20$core..fmt..Write$GT$9write_str17hf8399814d0171d88E+0x210>
13370000182a: 66 0f 1f 44 00 00        	nopw	(%rax,%rax)
133700001830: 44 89 d2                 	movl	%r10d, %edx
133700001833: ec                       	inb	%dx, %al
133700001834: a8 20                    	testb	$0x20, %al
133700001836: 74 f8                    	je	0x133700001830 <_ZN57_$LT$serial..SerialWriter$u20$as$u20$core..fmt..Write$GT$9write_str17hf8399814d0171d88E+0x1e0>
133700001838: 44 89 ca                 	movl	%r9d, %edx
13370000183b: b0 0d                    	movb	$0xd, %al
13370000183d: ee                       	outb	%al, %dx
13370000183e: 66 90                    	nop
133700001840: 44 89 d2                 	movl	%r10d, %edx
133700001843: ec                       	inb	%dx, %al
133700001844: a8 20                    	testb	$0x20, %al
133700001846: 74 f8                    	je	0x133700001840 <_ZN57_$LT$serial..SerialWriter$u20$as$u20$core..fmt..Write$GT$9write_str17hf8399814d0171d88E+0x1f0>
133700001848: 44 89 ca                 	movl	%r9d, %edx
13370000184b: b0 0a                    	movb	$0xa, %al
13370000184d: ee                       	outb	%al, %dx
13370000184e: 80 3d bf 57 00 00 01     	cmpb	$0x1, 0x57bf(%rip)      # 0x133700007014 <_ZN6serial6SERIAL17h97ccbff675468156E+0x14>
133700001855: 0f 85 3b fe ff ff        	jne	0x133700001696 <_ZN57_$LT$serial..SerialWriter$u20$as$u20$core..fmt..Write$GT$9write_str17hf8399814d0171d88E+0x46>
13370000185b: e9 72 fe ff ff           	jmp	0x1337000016d2 <_ZN57_$LT$serial..SerialWriter$u20$as$u20$core..fmt..Write$GT$9write_str17hf8399814d0171d88E+0x82>
133700001860: 44 89 d2                 	movl	%r10d, %edx
133700001863: ec                       	inb	%dx, %al
133700001864: a8 20                    	testb	$0x20, %al
133700001866: 74 f8                    	je	0x133700001860 <_ZN57_$LT$serial..SerialWriter$u20$as$u20$core..fmt..Write$GT$9write_str17hf8399814d0171d88E+0x210>
133700001868: 44 89 ca                 	movl	%r9d, %edx
13370000186b: 44 89 d8                 	movl	%r11d, %eax
13370000186e: ee                       	outb	%al, %dx
13370000186f: 80 3d 9e 57 00 00 01     	cmpb	$0x1, 0x579e(%rip)      # 0x133700007014 <_ZN6serial6SERIAL17h97ccbff675468156E+0x14>
133700001876: 0f 85 1a fe ff ff        	jne	0x133700001696 <_ZN57_$LT$serial..SerialWriter$u20$as$u20$core..fmt..Write$GT$9write_str17hf8399814d0171d88E+0x46>
13370000187c: e9 51 fe ff ff           	jmp	0x1337000016d2 <_ZN57_$LT$serial..SerialWriter$u20$as$u20$core..fmt..Write$GT$9write_str17hf8399814d0171d88E+0x82>
133700001881: f0                       	lock
133700001882: ff 05 7c 57 00 00        	incl	0x577c(%rip)            # 0x133700007004 <_ZN6serial6SERIAL17h97ccbff675468156E+0x4>
133700001888: 31 c0                    	xorl	%eax, %eax
13370000188a: 5e                       	popq	%rsi
13370000188b: c3                       	retq
13370000188c: cc                       	int3
13370000188d: cc                       	int3
13370000188e: cc                       	int3
13370000188f: cc                       	int3

0000133700001890 <_ZN71_$LT$core..ops..range..Range$LT$Idx$GT$$u20$as$u20$core..fmt..Debug$GT$3fmt17h9a2580987d22de2eE>:
133700001890: 55                       	pushq	%rbp
133700001891: 56                       	pushq	%rsi
133700001892: 57                       	pushq	%rdi
133700001893: 48 83 ec 20              	subq	$0x20, %rsp
133700001897: 48 8d 6c 24 20           	leaq	0x20(%rsp), %rbp
13370000189c: 48 89 d6                 	movq	%rdx, %rsi
13370000189f: 48 89 cf                 	movq	%rcx, %rdi
1337000018a2: e8 69 20 00 00           	callq	0x133700003910 <_ZN4core3fmt3num52_$LT$impl$u20$core..fmt..Debug$u20$for$u20$usize$GT$3fmt17h33e2a68da83d5eefE>
1337000018a7: 84 c0                    	testb	%al, %al
1337000018a9: 75 1c                    	jne	0x1337000018c7 <_ZN71_$LT$core..ops..range..Range$LT$Idx$GT$$u20$as$u20$core..fmt..Debug$GT$3fmt17h9a2580987d22de2eE+0x37>
1337000018ab: 48 8b 4e 20              	movq	0x20(%rsi), %rcx
1337000018af: 48 8b 46 28              	movq	0x28(%rsi), %rax
1337000018b3: 48 8d 15 d6 38 00 00     	leaq	0x38d6(%rip), %rdx      # 0x133700005190 <anon.f5e50f8ee13097b708e82fd3a822e157.170>
1337000018ba: 41 b8 02 00 00 00        	movl	$0x2, %r8d
1337000018c0: ff 50 18                 	callq	*0x18(%rax)
1337000018c3: 84 c0                    	testb	%al, %al
1337000018c5: 74 0a                    	je	0x1337000018d1 <_ZN71_$LT$core..ops..range..Range$LT$Idx$GT$$u20$as$u20$core..fmt..Debug$GT$3fmt17h9a2580987d22de2eE+0x41>
1337000018c7: b0 01                    	movb	$0x1, %al
1337000018c9: 48 83 c4 20              	addq	$0x20, %rsp
1337000018cd: 5f                       	popq	%rdi
1337000018ce: 5e                       	popq	%rsi
1337000018cf: 5d                       	popq	%rbp
1337000018d0: c3                       	retq
1337000018d1: 48 83 c7 08              	addq	$0x8, %rdi
1337000018d5: 48 89 f9                 	movq	%rdi, %rcx
1337000018d8: 48 89 f2                 	movq	%rsi, %rdx
1337000018db: 48 83 c4 20              	addq	$0x20, %rsp
1337000018df: 5f                       	popq	%rdi
1337000018e0: 5e                       	popq	%rsi
1337000018e1: 5d                       	popq	%rbp
1337000018e2: e9 29 20 00 00           	jmp	0x133700003910 <_ZN4core3fmt3num52_$LT$impl$u20$core..fmt..Debug$u20$for$u20$usize$GT$3fmt17h33e2a68da83d5eefE>
1337000018e7: cc                       	int3
1337000018e8: cc                       	int3
1337000018e9: cc                       	int3
1337000018ea: cc                       	int3
1337000018eb: cc                       	int3
1337000018ec: cc                       	int3
1337000018ed: cc                       	int3
1337000018ee: cc                       	int3
1337000018ef: cc                       	int3

00001337000018f0 <_ZN4core4char7methods22_$LT$impl$u20$char$GT$16escape_debug_ext17hf5faaa6c799cbaefE>:
1337000018f0: 55                       	pushq	%rbp
1337000018f1: 56                       	pushq	%rsi
1337000018f2: 57                       	pushq	%rdi
1337000018f3: 48 83 ec 40              	subq	$0x40, %rsp
1337000018f7: 48 8d 6c 24 40           	leaq	0x40(%rsp), %rbp
1337000018fc: 89 d6                    	movl	%edx, %esi
1337000018fe: 83 fa 27                 	cmpl	$0x27, %edx
133700001901: 77 1c                    	ja	0x13370000191f <_ZN4core4char7methods22_$LT$impl$u20$char$GT$16escape_debug_ext17hf5faaa6c799cbaefE+0x2f>
133700001903: 89 f0                    	movl	%esi, %eax
133700001905: 48 8d 15 10 46 00 00     	leaq	0x4610(%rip), %rdx      # 0x133700005f1c <_ZN4core7unicode12unicode_data15grapheme_extend7OFFSETS17hcba0531d78504049E+0x2d8>
13370000190c: 48 63 04 82              	movslq	(%rdx,%rax,4), %rax
133700001910: 48 01 d0                 	addq	%rdx, %rax
133700001913: ff e0                    	jmpq	*%rax
133700001915: 66 c7 01 5c 30           	movw	$0x305c, (%rcx)         # imm = 0x305C
13370000191a: e9 01 02 00 00           	jmp	0x133700001b20 <_ZN4core4char7methods22_$LT$impl$u20$char$GT$16escape_debug_ext17hf5faaa6c799cbaefE+0x230>
13370000191f: 83 fe 5c                 	cmpl	$0x5c, %esi
133700001922: 75 0a                    	jne	0x13370000192e <_ZN4core4char7methods22_$LT$impl$u20$char$GT$16escape_debug_ext17hf5faaa6c799cbaefE+0x3e>
133700001924: 66 c7 01 5c 5c           	movw	$0x5c5c, (%rcx)         # imm = 0x5C5C
133700001929: e9 f2 01 00 00           	jmp	0x133700001b20 <_ZN4core4char7methods22_$LT$impl$u20$char$GT$16escape_debug_ext17hf5faaa6c799cbaefE+0x230>
13370000192e: 81 fe 00 03 00 00        	cmpl	$0x300, %esi            # imm = 0x300
133700001934: 0f 93 c0                 	setae	%al
133700001937: 44 84 c0                 	testb	%r8b, %al
13370000193a: 0f 84 0d 01 00 00        	je	0x133700001a4d <_ZN4core4char7methods22_$LT$impl$u20$char$GT$16escape_debug_ext17hf5faaa6c799cbaefE+0x15d>
133700001940: 48 89 cf                 	movq	%rcx, %rdi
133700001943: 89 f1                    	movl	%esi, %ecx
133700001945: e8 36 23 00 00           	callq	0x133700003c80 <_ZN4core7unicode12unicode_data15grapheme_extend11lookup_slow17h1169c8984d610c5cE>
13370000194a: 48 89 f9                 	movq	%rdi, %rcx
13370000194d: 84 c0                    	testb	%al, %al
13370000194f: 0f 84 f8 00 00 00        	je	0x133700001a4d <_ZN4core4char7methods22_$LT$impl$u20$char$GT$16escape_debug_ext17hf5faaa6c799cbaefE+0x15d>
133700001955: 89 f0                    	movl	%esi, %eax
133700001957: 83 c8 01                 	orl	$0x1, %eax
13370000195a: 0f bd c0                 	bsrl	%eax, %eax
13370000195d: 83 f0 1c                 	xorl	$0x1c, %eax
133700001960: c1 e8 02                 	shrl	$0x2, %eax
133700001963: 48 8d 50 fe              	leaq	-0x2(%rax), %rdx
133700001967: c6 45 f6 00              	movb	$0x0, -0xa(%rbp)
13370000196b: 66 c7 45 f4 00 00        	movw	$0x0, -0xc(%rbp)
133700001971: 41 89 f1                 	movl	%esi, %r9d
133700001974: 41 c1 e9 14              	shrl	$0x14, %r9d
133700001978: 4c 8d 05 13 38 00 00     	leaq	0x3813(%rip), %r8       # 0x133700005192 <anon.f5e50f8ee13097b708e82fd3a822e157.174>
13370000197f: 47 0f b6 0c 01           	movzbl	(%r9,%r8), %r9d
133700001984: 44 88 4d f7              	movb	%r9b, -0x9(%rbp)
133700001988: 41 89 f1                 	movl	%esi, %r9d
13370000198b: 41 c1 e9 10              	shrl	$0x10, %r9d
13370000198f: 41 83 e1 0f              	andl	$0xf, %r9d
133700001993: 47 0f b6 0c 01           	movzbl	(%r9,%r8), %r9d
133700001998: 44 88 4d f8              	movb	%r9b, -0x8(%rbp)
13370000199c: 41 89 f1                 	movl	%esi, %r9d
13370000199f: 41 c1 e9 0c              	shrl	$0xc, %r9d
1337000019a3: 41 83 e1 0f              	andl	$0xf, %r9d
1337000019a7: 47 0f b6 0c 01           	movzbl	(%r9,%r8), %r9d
1337000019ac: 44 88 4d f9              	movb	%r9b, -0x7(%rbp)
1337000019b0: 41 89 f1                 	movl	%esi, %r9d
1337000019b3: 41 c1 e9 08              	shrl	$0x8, %r9d
1337000019b7: 41 83 e1 0f              	andl	$0xf, %r9d
1337000019bb: 47 0f b6 0c 01           	movzbl	(%r9,%r8), %r9d
1337000019c0: 44 88 4d fa              	movb	%r9b, -0x6(%rbp)
1337000019c4: 41 89 f1                 	movl	%esi, %r9d
1337000019c7: 41 c1 e9 04              	shrl	$0x4, %r9d
1337000019cb: 41 83 e1 0f              	andl	$0xf, %r9d
1337000019cf: 47 0f b6 0c 01           	movzbl	(%r9,%r8), %r9d
1337000019d4: 44 88 4d fb              	movb	%r9b, -0x5(%rbp)
1337000019d8: 83 e6 0f                 	andl	$0xf, %esi
1337000019db: 46 0f b6 04 06           	movzbl	(%rsi,%r8), %r8d
1337000019e0: 44 88 45 fc              	movb	%r8b, -0x4(%rbp)
1337000019e4: c6 45 fd 7d              	movb	$0x7d, -0x3(%rbp)
1337000019e8: 66 c7 44 05 f2 5c 75     	movw	$0x755c, -0xe(%rbp,%rax) # imm = 0x755C
1337000019ef: c6 44 05 f4 7b           	movb	$0x7b, -0xc(%rbp,%rax)
1337000019f4: 0f b7 45 fc              	movzwl	-0x4(%rbp), %eax
1337000019f8: 66 89 41 08              	movw	%ax, 0x8(%rcx)
1337000019fc: 48 8b 45 f4              	movq	-0xc(%rbp), %rax
133700001a00: 48 89 01                 	movq	%rax, (%rcx)
133700001a03: 88 51 0a                 	movb	%dl, 0xa(%rcx)
133700001a06: c6 41 0b 0a              	movb	$0xa, 0xb(%rcx)
133700001a0a: e9 1f 01 00 00           	jmp	0x133700001b2e <_ZN4core4char7methods22_$LT$impl$u20$char$GT$16escape_debug_ext17hf5faaa6c799cbaefE+0x23e>
133700001a0f: 66 c7 01 5c 6e           	movw	$0x6e5c, (%rcx)         # imm = 0x6E5C
133700001a14: e9 07 01 00 00           	jmp	0x133700001b20 <_ZN4core4char7methods22_$LT$impl$u20$char$GT$16escape_debug_ext17hf5faaa6c799cbaefE+0x230>
133700001a19: 41 f7 c0 00 01 00 00     	testl	$0x100, %r8d            # imm = 0x100
133700001a20: 74 2b                    	je	0x133700001a4d <_ZN4core4char7methods22_$LT$impl$u20$char$GT$16escape_debug_ext17hf5faaa6c799cbaefE+0x15d>
133700001a22: 66 c7 01 5c 27           	movw	$0x275c, (%rcx)         # imm = 0x275C
133700001a27: e9 f4 00 00 00           	jmp	0x133700001b20 <_ZN4core4char7methods22_$LT$impl$u20$char$GT$16escape_debug_ext17hf5faaa6c799cbaefE+0x230>
133700001a2c: 66 c7 01 5c 72           	movw	$0x725c, (%rcx)         # imm = 0x725C
133700001a31: e9 ea 00 00 00           	jmp	0x133700001b20 <_ZN4core4char7methods22_$LT$impl$u20$char$GT$16escape_debug_ext17hf5faaa6c799cbaefE+0x230>
133700001a36: 66 c7 01 5c 74           	movw	$0x745c, (%rcx)         # imm = 0x745C
133700001a3b: e9 e0 00 00 00           	jmp	0x133700001b20 <_ZN4core4char7methods22_$LT$impl$u20$char$GT$16escape_debug_ext17hf5faaa6c799cbaefE+0x230>
133700001a40: 41 f7 c0 00 00 01 00     	testl	$0x10000, %r8d          # imm = 0x10000
133700001a47: 0f 85 ce 00 00 00        	jne	0x133700001b1b <_ZN4core4char7methods22_$LT$impl$u20$char$GT$16escape_debug_ext17hf5faaa6c799cbaefE+0x22b>
133700001a4d: 48 89 cf                 	movq	%rcx, %rdi
133700001a50: 89 f1                    	movl	%esi, %ecx
133700001a52: e8 19 1c 00 00           	callq	0x133700003670 <_ZN4core7unicode9printable12is_printable17h22c1254dc27374ceE>
133700001a57: 84 c0                    	testb	%al, %al
133700001a59: 74 0b                    	je	0x133700001a66 <_ZN4core4char7methods22_$LT$impl$u20$char$GT$16escape_debug_ext17hf5faaa6c799cbaefE+0x176>
133700001a5b: c6 07 80                 	movb	$-0x80, (%rdi)
133700001a5e: 89 77 04                 	movl	%esi, 0x4(%rdi)
133700001a61: e9 c8 00 00 00           	jmp	0x133700001b2e <_ZN4core4char7methods22_$LT$impl$u20$char$GT$16escape_debug_ext17hf5faaa6c799cbaefE+0x23e>
133700001a66: 89 f0                    	movl	%esi, %eax
133700001a68: 83 c8 01                 	orl	$0x1, %eax
133700001a6b: 0f bd c0                 	bsrl	%eax, %eax
133700001a6e: 83 f0 1c                 	xorl	$0x1c, %eax
133700001a71: c1 e8 02                 	shrl	$0x2, %eax
133700001a74: 48 8d 48 fe              	leaq	-0x2(%rax), %rcx
133700001a78: c6 45 ea 00              	movb	$0x0, -0x16(%rbp)
133700001a7c: 66 c7 45 e8 00 00        	movw	$0x0, -0x18(%rbp)
133700001a82: 41 89 f0                 	movl	%esi, %r8d
133700001a85: 41 c1 e8 14              	shrl	$0x14, %r8d
133700001a89: 48 8d 15 02 37 00 00     	leaq	0x3702(%rip), %rdx      # 0x133700005192 <anon.f5e50f8ee13097b708e82fd3a822e157.174>
133700001a90: 45 0f b6 04 10           	movzbl	(%r8,%rdx), %r8d
133700001a95: 44 88 45 eb              	movb	%r8b, -0x15(%rbp)
133700001a99: 41 89 f0                 	movl	%esi, %r8d
133700001a9c: 41 c1 e8 10              	shrl	$0x10, %r8d
133700001aa0: 41 83 e0 0f              	andl	$0xf, %r8d
133700001aa4: 45 0f b6 04 10           	movzbl	(%r8,%rdx), %r8d
133700001aa9: 44 88 45 ec              	movb	%r8b, -0x14(%rbp)
133700001aad: 41 89 f0                 	movl	%esi, %r8d
133700001ab0: 41 c1 e8 0c              	shrl	$0xc, %r8d
133700001ab4: 41 83 e0 0f              	andl	$0xf, %r8d
133700001ab8: 45 0f b6 04 10           	movzbl	(%r8,%rdx), %r8d
133700001abd: 44 88 45 ed              	movb	%r8b, -0x13(%rbp)
133700001ac1: 41 89 f0                 	movl	%esi, %r8d
133700001ac4: 41 c1 e8 08              	shrl	$0x8, %r8d
133700001ac8: 41 83 e0 0f              	andl	$0xf, %r8d
133700001acc: 45 0f b6 04 10           	movzbl	(%r8,%rdx), %r8d
133700001ad1: 44 88 45 ee              	movb	%r8b, -0x12(%rbp)
133700001ad5: 41 89 f0                 	movl	%esi, %r8d
133700001ad8: 41 c1 e8 04              	shrl	$0x4, %r8d
133700001adc: 41 83 e0 0f              	andl	$0xf, %r8d
133700001ae0: 45 0f b6 04 10           	movzbl	(%r8,%rdx), %r8d
133700001ae5: 44 88 45 ef              	movb	%r8b, -0x11(%rbp)
133700001ae9: 83 e6 0f                 	andl	$0xf, %esi
133700001aec: 0f b6 14 16              	movzbl	(%rsi,%rdx), %edx
133700001af0: 88 55 f0                 	movb	%dl, -0x10(%rbp)
133700001af3: c6 45 f1 7d              	movb	$0x7d, -0xf(%rbp)
133700001af7: 66 c7 44 05 e6 5c 75     	movw	$0x755c, -0x1a(%rbp,%rax) # imm = 0x755C
133700001afe: c6 44 05 e8 7b           	movb	$0x7b, -0x18(%rbp,%rax)
133700001b03: 0f b7 45 f0              	movzwl	-0x10(%rbp), %eax
133700001b07: 66 89 47 08              	movw	%ax, 0x8(%rdi)
133700001b0b: 48 8b 45 e8              	movq	-0x18(%rbp), %rax
133700001b0f: 48 89 07                 	movq	%rax, (%rdi)
133700001b12: 88 4f 0a                 	movb	%cl, 0xa(%rdi)
133700001b15: c6 47 0b 0a              	movb	$0xa, 0xb(%rdi)
133700001b19: eb 13                    	jmp	0x133700001b2e <_ZN4core4char7methods22_$LT$impl$u20$char$GT$16escape_debug_ext17hf5faaa6c799cbaefE+0x23e>
133700001b1b: 66 c7 01 5c 22           	movw	$0x225c, (%rcx)         # imm = 0x225C
133700001b20: 48 c7 41 02 00 00 00 00  	movq	$0x0, 0x2(%rcx)
133700001b28: 66 c7 41 0a 00 02        	movw	$0x200, 0xa(%rcx)       # imm = 0x200
133700001b2e: 48 83 c4 40              	addq	$0x40, %rsp
133700001b32: 5f                       	popq	%rdi
133700001b33: 5e                       	popq	%rsi
133700001b34: 5d                       	popq	%rbp
133700001b35: c3                       	retq
133700001b36: cc                       	int3
133700001b37: cc                       	int3
133700001b38: cc                       	int3
133700001b39: cc                       	int3
133700001b3a: cc                       	int3
133700001b3b: cc                       	int3
133700001b3c: cc                       	int3
133700001b3d: cc                       	int3
133700001b3e: cc                       	int3
133700001b3f: cc                       	int3

0000133700001b40 <_ZN4core3fmt5write17h51c28f1ed8b056c9E>:
133700001b40: 55                       	pushq	%rbp
133700001b41: 41 57                    	pushq	%r15
133700001b43: 41 56                    	pushq	%r14
133700001b45: 41 55                    	pushq	%r13
133700001b47: 41 54                    	pushq	%r12
133700001b49: 56                       	pushq	%rsi
133700001b4a: 57                       	pushq	%rdi
133700001b4b: 53                       	pushq	%rbx
133700001b4c: 48 83 ec 68              	subq	$0x68, %rsp
133700001b50: 48 8d 6c 24 60           	leaq	0x60(%rsp), %rbp
133700001b55: 4c 89 c6                 	movq	%r8, %rsi
133700001b58: 48 c7 45 f8 20 00 00 00  	movq	$0x20, -0x8(%rbp)
133700001b60: c6 45 00 03              	movb	$0x3, (%rbp)
133700001b64: 48 c7 45 c8 00 00 00 00  	movq	$0x0, -0x38(%rbp)
133700001b6c: 48 c7 45 d8 00 00 00 00  	movq	$0x0, -0x28(%rbp)
133700001b74: 48 89 4d e8              	movq	%rcx, -0x18(%rbp)
133700001b78: 48 89 55 f0              	movq	%rdx, -0x10(%rbp)
133700001b7c: 4d 8b 70 20              	movq	0x20(%r8), %r14
133700001b80: 4d 85 f6                 	testq	%r14, %r14
133700001b83: 0f 84 01 01 00 00        	je	0x133700001c8a <_ZN4core3fmt5write17h51c28f1ed8b056c9E+0x14a>
133700001b89: 48 8b 46 28              	movq	0x28(%rsi), %rax
133700001b8d: 48 85 c0                 	testq	%rax, %rax
133700001b90: 0f 84 55 01 00 00        	je	0x133700001ceb <_ZN4core3fmt5write17h51c28f1ed8b056c9E+0x1ab>
133700001b96: 4c 8b 3e                 	movq	(%rsi), %r15
133700001b99: 4c 8b 66 10              	movq	0x10(%rsi), %r12
133700001b9d: 49 83 c7 08              	addq	$0x8, %r15
133700001ba1: 4c 6b e8 38              	imulq	$0x38, %rax, %r13
133700001ba5: 31 ff                    	xorl	%edi, %edi
133700001ba7: 31 db                    	xorl	%ebx, %ebx
133700001ba9: 0f 1f 80 00 00 00 00     	nopl	(%rax)
133700001bb0: 4d 8b 07                 	movq	(%r15), %r8
133700001bb3: 4d 85 c0                 	testq	%r8, %r8
133700001bb6: 74 17                    	je	0x133700001bcf <_ZN4core3fmt5write17h51c28f1ed8b056c9E+0x8f>
133700001bb8: 48 8b 4d e8              	movq	-0x18(%rbp), %rcx
133700001bbc: 48 8b 45 f0              	movq	-0x10(%rbp), %rax
133700001bc0: 49 8b 57 f8              	movq	-0x8(%r15), %rdx
133700001bc4: ff 50 18                 	callq	*0x18(%rax)
133700001bc7: 84 c0                    	testb	%al, %al
133700001bc9: 0f 85 44 01 00 00        	jne	0x133700001d13 <_ZN4core3fmt5write17h51c28f1ed8b056c9E+0x1d3>
133700001bcf: 41 8b 44 3e 28           	movl	0x28(%r14,%rdi), %eax
133700001bd4: 89 45 f8                 	movl	%eax, -0x8(%rbp)
133700001bd7: 41 0f b6 44 3e 30        	movzbl	0x30(%r14,%rdi), %eax
133700001bdd: 88 45 00                 	movb	%al, (%rbp)
133700001be0: 41 8b 44 3e 2c           	movl	0x2c(%r14,%rdi), %eax
133700001be5: 89 45 fc                 	movl	%eax, -0x4(%rbp)
133700001be8: 49 8b 4c 3e 10           	movq	0x10(%r14,%rdi), %rcx
133700001bed: 49 8b 44 3e 18           	movq	0x18(%r14,%rdi), %rax
133700001bf2: 48 85 c9                 	testq	%rcx, %rcx
133700001bf5: 74 1b                    	je	0x133700001c12 <_ZN4core3fmt5write17h51c28f1ed8b056c9E+0xd2>
133700001bf7: 83 f9 01                 	cmpl	$0x1, %ecx
133700001bfa: 75 0c                    	jne	0x133700001c08 <_ZN4core3fmt5write17h51c28f1ed8b056c9E+0xc8>
133700001bfc: 48 c1 e0 04              	shlq	$0x4, %rax
133700001c00: 49 83 7c 04 08 00        	cmpq	$0x0, 0x8(%r12,%rax)
133700001c06: 74 04                    	je	0x133700001c0c <_ZN4core3fmt5write17h51c28f1ed8b056c9E+0xcc>
133700001c08: 31 c9                    	xorl	%ecx, %ecx
133700001c0a: eb 0b                    	jmp	0x133700001c17 <_ZN4core3fmt5write17h51c28f1ed8b056c9E+0xd7>
133700001c0c: 4c 01 e0                 	addq	%r12, %rax
133700001c0f: 48 8b 00                 	movq	(%rax), %rax
133700001c12: b9 01 00 00 00           	movl	$0x1, %ecx
133700001c17: 48 89 4d c8              	movq	%rcx, -0x38(%rbp)
133700001c1b: 48 89 45 d0              	movq	%rax, -0x30(%rbp)
133700001c1f: 49 8b 0c 3e              	movq	(%r14,%rdi), %rcx
133700001c23: 48 83 f9 02              	cmpq	$0x2, %rcx
133700001c27: 74 16                    	je	0x133700001c3f <_ZN4core3fmt5write17h51c28f1ed8b056c9E+0xff>
133700001c29: 49 8b 44 3e 08           	movq	0x8(%r14,%rdi), %rax
133700001c2e: 83 f9 01                 	cmpl	$0x1, %ecx
133700001c31: 75 16                    	jne	0x133700001c49 <_ZN4core3fmt5write17h51c28f1ed8b056c9E+0x109>
133700001c33: 48 c1 e0 04              	shlq	$0x4, %rax
133700001c37: 49 83 7c 04 08 00        	cmpq	$0x0, 0x8(%r12,%rax)
133700001c3d: 74 04                    	je	0x133700001c43 <_ZN4core3fmt5write17h51c28f1ed8b056c9E+0x103>
133700001c3f: 31 c9                    	xorl	%ecx, %ecx
133700001c41: eb 0b                    	jmp	0x133700001c4e <_ZN4core3fmt5write17h51c28f1ed8b056c9E+0x10e>
133700001c43: 4c 01 e0                 	addq	%r12, %rax
133700001c46: 48 8b 00                 	movq	(%rax), %rax
133700001c49: b9 01 00 00 00           	movl	$0x1, %ecx
133700001c4e: 48 89 4d d8              	movq	%rcx, -0x28(%rbp)
133700001c52: 48 89 45 e0              	movq	%rax, -0x20(%rbp)
133700001c56: 49 8b 44 3e 20           	movq	0x20(%r14,%rdi), %rax
133700001c5b: 48 c1 e0 04              	shlq	$0x4, %rax
133700001c5f: 49 8b 0c 04              	movq	(%r12,%rax), %rcx
133700001c63: 48 8d 55 c8              	leaq	-0x38(%rbp), %rdx
133700001c67: 41 ff 54 04 08           	callq	*0x8(%r12,%rax)
133700001c6c: 84 c0                    	testb	%al, %al
133700001c6e: 0f 85 9f 00 00 00        	jne	0x133700001d13 <_ZN4core3fmt5write17h51c28f1ed8b056c9E+0x1d3>
133700001c74: 49 83 c7 10              	addq	$0x10, %r15
133700001c78: 48 83 c7 38              	addq	$0x38, %rdi
133700001c7c: 48 ff c3                 	incq	%rbx
133700001c7f: 49 39 fd                 	cmpq	%rdi, %r13
133700001c82: 0f 85 28 ff ff ff        	jne	0x133700001bb0 <_ZN4core3fmt5write17h51c28f1ed8b056c9E+0x70>
133700001c88: eb 63                    	jmp	0x133700001ced <_ZN4core3fmt5write17h51c28f1ed8b056c9E+0x1ad>
133700001c8a: 4c 8b 76 18              	movq	0x18(%rsi), %r14
133700001c8e: 4d 85 f6                 	testq	%r14, %r14
133700001c91: 0f 84 80 00 00 00        	je	0x133700001d17 <_ZN4core3fmt5write17h51c28f1ed8b056c9E+0x1d7>
133700001c97: 4c 8b 7e 10              	movq	0x10(%rsi), %r15
133700001c9b: 4c 8b 26                 	movq	(%rsi), %r12
133700001c9e: 49 c1 e6 04              	shlq	$0x4, %r14
133700001ca2: 45 31 ed                 	xorl	%r13d, %r13d
133700001ca5: 48 8d 7d c8              	leaq	-0x38(%rbp), %rdi
133700001ca9: 31 db                    	xorl	%ebx, %ebx
133700001cab: 0f 1f 44 00 00           	nopl	(%rax,%rax)
133700001cb0: 4f 8b 44 2c 08           	movq	0x8(%r12,%r13), %r8
133700001cb5: 4d 85 c0                 	testq	%r8, %r8
133700001cb8: 74 13                    	je	0x133700001ccd <_ZN4core3fmt5write17h51c28f1ed8b056c9E+0x18d>
133700001cba: 48 8b 4d e8              	movq	-0x18(%rbp), %rcx
133700001cbe: 48 8b 45 f0              	movq	-0x10(%rbp), %rax
133700001cc2: 4b 8b 14 2c              	movq	(%r12,%r13), %rdx
133700001cc6: ff 50 18                 	callq	*0x18(%rax)
133700001cc9: 84 c0                    	testb	%al, %al
133700001ccb: 75 46                    	jne	0x133700001d13 <_ZN4core3fmt5write17h51c28f1ed8b056c9E+0x1d3>
133700001ccd: 4b 8b 0c 2f              	movq	(%r15,%r13), %rcx
133700001cd1: 48 89 fa                 	movq	%rdi, %rdx
133700001cd4: 43 ff 54 2f 08           	callq	*0x8(%r15,%r13)
133700001cd9: 84 c0                    	testb	%al, %al
133700001cdb: 75 36                    	jne	0x133700001d13 <_ZN4core3fmt5write17h51c28f1ed8b056c9E+0x1d3>
133700001cdd: 49 83 c5 10              	addq	$0x10, %r13
133700001ce1: 48 ff c3                 	incq	%rbx
133700001ce4: 4d 39 ee                 	cmpq	%r13, %r14
133700001ce7: 75 c7                    	jne	0x133700001cb0 <_ZN4core3fmt5write17h51c28f1ed8b056c9E+0x170>
133700001ce9: eb 02                    	jmp	0x133700001ced <_ZN4core3fmt5write17h51c28f1ed8b056c9E+0x1ad>
133700001ceb: 31 db                    	xorl	%ebx, %ebx
133700001ced: 48 3b 5e 08              	cmpq	0x8(%rsi), %rbx
133700001cf1: 73 2c                    	jae	0x133700001d1f <_ZN4core3fmt5write17h51c28f1ed8b056c9E+0x1df>
133700001cf3: 48 8b 06                 	movq	(%rsi), %rax
133700001cf6: 48 c1 e3 04              	shlq	$0x4, %rbx
133700001cfa: 48 8b 4d e8              	movq	-0x18(%rbp), %rcx
133700001cfe: 4c 8b 4d f0              	movq	-0x10(%rbp), %r9
133700001d02: 48 8b 14 18              	movq	(%rax,%rbx), %rdx
133700001d06: 4c 8b 44 18 08           	movq	0x8(%rax,%rbx), %r8
133700001d0b: 41 ff 51 18              	callq	*0x18(%r9)
133700001d0f: 84 c0                    	testb	%al, %al
133700001d11: 74 0c                    	je	0x133700001d1f <_ZN4core3fmt5write17h51c28f1ed8b056c9E+0x1df>
133700001d13: b0 01                    	movb	$0x1, %al
133700001d15: eb 0a                    	jmp	0x133700001d21 <_ZN4core3fmt5write17h51c28f1ed8b056c9E+0x1e1>
133700001d17: 31 db                    	xorl	%ebx, %ebx
133700001d19: 48 3b 5e 08              	cmpq	0x8(%rsi), %rbx
133700001d1d: 72 d4                    	jb	0x133700001cf3 <_ZN4core3fmt5write17h51c28f1ed8b056c9E+0x1b3>
133700001d1f: 31 c0                    	xorl	%eax, %eax
133700001d21: 48 83 c4 68              	addq	$0x68, %rsp
133700001d25: 5b                       	popq	%rbx
133700001d26: 5f                       	popq	%rdi
133700001d27: 5e                       	popq	%rsi
133700001d28: 41 5c                    	popq	%r12
133700001d2a: 41 5d                    	popq	%r13
133700001d2c: 41 5e                    	popq	%r14
133700001d2e: 41 5f                    	popq	%r15
133700001d30: 5d                       	popq	%rbp
133700001d31: c3                       	retq
133700001d32: cc                       	int3
133700001d33: cc                       	int3
133700001d34: cc                       	int3
133700001d35: cc                       	int3
133700001d36: cc                       	int3
133700001d37: cc                       	int3
133700001d38: cc                       	int3
133700001d39: cc                       	int3
133700001d3a: cc                       	int3
133700001d3b: cc                       	int3
133700001d3c: cc                       	int3
133700001d3d: cc                       	int3
133700001d3e: cc                       	int3
133700001d3f: cc                       	int3

0000133700001d40 <_ZN4core3fmt9Formatter12pad_integral17h2670696f36a93076E>:
133700001d40: 55                       	pushq	%rbp
133700001d41: 41 57                    	pushq	%r15
133700001d43: 41 56                    	pushq	%r14
133700001d45: 41 55                    	pushq	%r13
133700001d47: 41 54                    	pushq	%r12
133700001d49: 56                       	pushq	%rsi
133700001d4a: 57                       	pushq	%rdi
133700001d4b: 53                       	pushq	%rbx
133700001d4c: 48 83 ec 48              	subq	$0x48, %rsp
133700001d50: 48 8d 6c 24 40           	leaq	0x40(%rsp), %rbp
133700001d55: 4d 89 ce                 	movq	%r9, %r14
133700001d58: 4c 89 c3                 	movq	%r8, %rbx
133700001d5b: 4c 8b 6d 78              	movq	0x78(%rbp), %r13
133700001d5f: 84 d2                    	testb	%dl, %dl
133700001d61: 74 49                    	je	0x133700001dac <_ZN4core3fmt9Formatter12pad_integral17h2670696f36a93076E+0x6c>
133700001d63: 44 8b 61 34              	movl	0x34(%rcx), %r12d
133700001d67: 45 89 e3                 	movl	%r12d, %r11d
133700001d6a: 41 83 e3 01              	andl	$0x1, %r11d
133700001d6e: b8 00 00 11 00           	movl	$0x110000, %eax         # imm = 0x110000
133700001d73: 41 b8 2b 00 00 00        	movl	$0x2b, %r8d
133700001d79: 44 0f 44 c0              	cmovel	%eax, %r8d
133700001d7d: 4d 01 eb                 	addq	%r13, %r11
133700001d80: 48 8b 75 70              	movq	0x70(%rbp), %rsi
133700001d84: 41 f6 c4 04              	testb	$0x4, %r12b
133700001d88: 74 3a                    	je	0x133700001dc4 <_ZN4core3fmt9Formatter12pad_integral17h2670696f36a93076E+0x84>
133700001d8a: 49 83 fe 20              	cmpq	$0x20, %r14
133700001d8e: 73 57                    	jae	0x133700001de7 <_ZN4core3fmt9Formatter12pad_integral17h2670696f36a93076E+0xa7>
133700001d90: 4d 85 f6                 	testq	%r14, %r14
133700001d93: 0f 84 8a 00 00 00        	je	0x133700001e23 <_ZN4core3fmt9Formatter12pad_integral17h2670696f36a93076E+0xe3>
133700001d99: 49 83 fe 04              	cmpq	$0x4, %r14
133700001d9d: 0f 83 87 00 00 00        	jae	0x133700001e2a <_ZN4core3fmt9Formatter12pad_integral17h2670696f36a93076E+0xea>
133700001da3: 31 c0                    	xorl	%eax, %eax
133700001da5: 31 d2                    	xorl	%edx, %edx
133700001da7: e9 b4 02 00 00           	jmp	0x133700002060 <_ZN4core3fmt9Formatter12pad_integral17h2670696f36a93076E+0x320>
133700001dac: 4d 8d 5d 01              	leaq	0x1(%r13), %r11
133700001db0: 44 8b 61 34              	movl	0x34(%rcx), %r12d
133700001db4: 41 b8 2d 00 00 00        	movl	$0x2d, %r8d
133700001dba: 48 8b 75 70              	movq	0x70(%rbp), %rsi
133700001dbe: 41 f6 c4 04              	testb	$0x4, %r12b
133700001dc2: 75 c6                    	jne	0x133700001d8a <_ZN4core3fmt9Formatter12pad_integral17h2670696f36a93076E+0x4a>
133700001dc4: 31 db                    	xorl	%ebx, %ebx
133700001dc6: f6 01 01                 	testb	$0x1, (%rcx)
133700001dc9: 0f 85 b3 02 00 00        	jne	0x133700002082 <_ZN4core3fmt9Formatter12pad_integral17h2670696f36a93076E+0x342>
133700001dcf: 48 8b 79 20              	movq	0x20(%rcx), %rdi
133700001dd3: 4c 8b 61 28              	movq	0x28(%rcx), %r12
133700001dd7: 4c 89 74 24 20           	movq	%r14, 0x20(%rsp)
133700001ddc: 48 89 f9                 	movq	%rdi, %rcx
133700001ddf: 4c 89 e2                 	movq	%r12, %rdx
133700001de2: e9 ec 02 00 00           	jmp	0x1337000020d3 <_ZN4core3fmt9Formatter12pad_integral17h2670696f36a93076E+0x393>
133700001de7: 4c 89 6d f8              	movq	%r13, -0x8(%rbp)
133700001deb: 45 89 c5                 	movl	%r8d, %r13d
133700001dee: 49 89 f7                 	movq	%rsi, %r15
133700001df1: 48 89 ce                 	movq	%rcx, %rsi
133700001df4: 48 89 d9                 	movq	%rbx, %rcx
133700001df7: 4c 89 f2                 	movq	%r14, %rdx
133700001dfa: 4c 89 f7                 	movq	%r14, %rdi
133700001dfd: 49 89 de                 	movq	%rbx, %r14
133700001e00: 4c 89 db                 	movq	%r11, %rbx
133700001e03: e8 18 0d 00 00           	callq	0x133700002b20 <_ZN4core3str5count14do_count_chars17haef711cfa931ccd4E>
133700001e08: 49 89 db                 	movq	%rbx, %r11
133700001e0b: 4c 89 f3                 	movq	%r14, %rbx
133700001e0e: 49 89 fe                 	movq	%rdi, %r14
133700001e11: 48 89 f1                 	movq	%rsi, %rcx
133700001e14: 4c 89 fe                 	movq	%r15, %rsi
133700001e17: 45 89 e8                 	movl	%r13d, %r8d
133700001e1a: 4c 8b 6d f8              	movq	-0x8(%rbp), %r13
133700001e1e: e9 53 02 00 00           	jmp	0x133700002076 <_ZN4core3fmt9Formatter12pad_integral17h2670696f36a93076E+0x336>
133700001e23: 31 c0                    	xorl	%eax, %eax
133700001e25: e9 4c 02 00 00           	jmp	0x133700002076 <_ZN4core3fmt9Formatter12pad_integral17h2670696f36a93076E+0x336>
133700001e2a: 44 89 f2                 	movl	%r14d, %edx
133700001e2d: 83 e2 1c                 	andl	$0x1c, %edx
133700001e30: 0f b7 03                 	movzwl	(%rbx), %eax
133700001e33: 66 0f 6e c0              	movd	%eax, %xmm0
133700001e37: 0f b7 43 02              	movzwl	0x2(%rbx), %eax
133700001e3b: 66 0f 6e c8              	movd	%eax, %xmm1
133700001e3f: 66 0f 6f 15 e9 32 00 00  	movdqa	0x32e9(%rip), %xmm2     # 0x133700005130 <__xmm@0000000000000000000000000000bfbf>
133700001e47: 66 0f 64 c2              	pcmpgtb	%xmm2, %xmm0
133700001e4b: 66 0f 60 c0              	punpcklbw	%xmm0, %xmm0    # xmm0 = xmm0[0,0,1,1,2,2,3,3,4,4,5,5,6,6,7,7]
133700001e4f: f2 0f 70 c0 d4           	pshuflw	$0xd4, %xmm0, %xmm0     # xmm0 = xmm0[0,1,1,3,4,5,6,7]
133700001e54: 66 0f 70 c0 d4           	pshufd	$0xd4, %xmm0, %xmm0     # xmm0 = xmm0[0,1,1,3]
133700001e59: 66 0f 6f 1d df 32 00 00  	movdqa	0x32df(%rip), %xmm3     # 0x133700005140 <__xmm@00000000000000010000000000000001>
133700001e61: 66 0f db c3              	pand	%xmm3, %xmm0
133700001e65: 66 0f 64 ca              	pcmpgtb	%xmm2, %xmm1
133700001e69: 66 0f 60 c9              	punpcklbw	%xmm1, %xmm1    # xmm1 = xmm1[0,0,1,1,2,2,3,3,4,4,5,5,6,6,7,7]
133700001e6d: f2 0f 70 c9 d4           	pshuflw	$0xd4, %xmm1, %xmm1     # xmm1 = xmm1[0,1,1,3,4,5,6,7]
133700001e72: 66 0f 70 c9 d4           	pshufd	$0xd4, %xmm1, %xmm1     # xmm1 = xmm1[0,1,1,3]
133700001e77: 66 0f db cb              	pand	%xmm3, %xmm1
133700001e7b: 48 83 fa 04              	cmpq	$0x4, %rdx
133700001e7f: 0f 84 c1 01 00 00        	je	0x133700002046 <_ZN4core3fmt9Formatter12pad_integral17h2670696f36a93076E+0x306>
133700001e85: 0f b7 43 04              	movzwl	0x4(%rbx), %eax
133700001e89: 66 0f 6e e0              	movd	%eax, %xmm4
133700001e8d: 0f b7 43 06              	movzwl	0x6(%rbx), %eax
133700001e91: 66 0f 6e e8              	movd	%eax, %xmm5
133700001e95: 66 0f 64 e2              	pcmpgtb	%xmm2, %xmm4
133700001e99: 66 0f 60 e4              	punpcklbw	%xmm4, %xmm4    # xmm4 = xmm4[0,0,1,1,2,2,3,3,4,4,5,5,6,6,7,7]
133700001e9d: f2 0f 70 e4 d4           	pshuflw	$0xd4, %xmm4, %xmm4     # xmm4 = xmm4[0,1,1,3,4,5,6,7]
133700001ea2: 66 0f 70 e4 d4           	pshufd	$0xd4, %xmm4, %xmm4     # xmm4 = xmm4[0,1,1,3]
133700001ea7: 66 0f db e3              	pand	%xmm3, %xmm4
133700001eab: 66 0f 64 ea              	pcmpgtb	%xmm2, %xmm5
133700001eaf: 66 0f 60 ed              	punpcklbw	%xmm5, %xmm5    # xmm5 = xmm5[0,0,1,1,2,2,3,3,4,4,5,5,6,6,7,7]
133700001eb3: f2 0f 70 ed d4           	pshuflw	$0xd4, %xmm5, %xmm5     # xmm5 = xmm5[0,1,1,3,4,5,6,7]
133700001eb8: 66 0f 70 ed d4           	pshufd	$0xd4, %xmm5, %xmm5     # xmm5 = xmm5[0,1,1,3]
133700001ebd: 66 0f db eb              	pand	%xmm3, %xmm5
133700001ec1: 66 0f d4 c4              	paddq	%xmm4, %xmm0
133700001ec5: 66 0f d4 cd              	paddq	%xmm5, %xmm1
133700001ec9: 83 fa 08                 	cmpl	$0x8, %edx
133700001ecc: 0f 84 74 01 00 00        	je	0x133700002046 <_ZN4core3fmt9Formatter12pad_integral17h2670696f36a93076E+0x306>
133700001ed2: 0f b7 43 08              	movzwl	0x8(%rbx), %eax
133700001ed6: 66 0f 6e e0              	movd	%eax, %xmm4
133700001eda: 0f b7 43 0a              	movzwl	0xa(%rbx), %eax
133700001ede: 66 0f 6e e8              	movd	%eax, %xmm5
133700001ee2: 66 0f 64 e2              	pcmpgtb	%xmm2, %xmm4
133700001ee6: 66 0f 60 e4              	punpcklbw	%xmm4, %xmm4    # xmm4 = xmm4[0,0,1,1,2,2,3,3,4,4,5,5,6,6,7,7]
133700001eea: f2 0f 70 e4 d4           	pshuflw	$0xd4, %xmm4, %xmm4     # xmm4 = xmm4[0,1,1,3,4,5,6,7]
133700001eef: 66 0f 70 e4 d4           	pshufd	$0xd4, %xmm4, %xmm4     # xmm4 = xmm4[0,1,1,3]
133700001ef4: 66 0f db e3              	pand	%xmm3, %xmm4
133700001ef8: 66 0f 64 ea              	pcmpgtb	%xmm2, %xmm5
133700001efc: 66 0f 60 ed              	punpcklbw	%xmm5, %xmm5    # xmm5 = xmm5[0,0,1,1,2,2,3,3,4,4,5,5,6,6,7,7]
133700001f00: f2 0f 70 ed d4           	pshuflw	$0xd4, %xmm5, %xmm5     # xmm5 = xmm5[0,1,1,3,4,5,6,7]
133700001f05: 66 0f 70 ed d4           	pshufd	$0xd4, %xmm5, %xmm5     # xmm5 = xmm5[0,1,1,3]
133700001f0a: 66 0f db eb              	pand	%xmm3, %xmm5
133700001f0e: 66 0f d4 c4              	paddq	%xmm4, %xmm0
133700001f12: 66 0f d4 cd              	paddq	%xmm5, %xmm1
133700001f16: 83 fa 0c                 	cmpl	$0xc, %edx
133700001f19: 0f 84 27 01 00 00        	je	0x133700002046 <_ZN4core3fmt9Formatter12pad_integral17h2670696f36a93076E+0x306>
133700001f1f: 0f b7 43 0c              	movzwl	0xc(%rbx), %eax
133700001f23: 66 0f 6e e0              	movd	%eax, %xmm4
133700001f27: 0f b7 43 0e              	movzwl	0xe(%rbx), %eax
133700001f2b: 66 0f 6e e8              	movd	%eax, %xmm5
133700001f2f: 66 0f 64 e2              	pcmpgtb	%xmm2, %xmm4
133700001f33: 66 0f 60 e4              	punpcklbw	%xmm4, %xmm4    # xmm4 = xmm4[0,0,1,1,2,2,3,3,4,4,5,5,6,6,7,7]
133700001f37: f2 0f 70 e4 d4           	pshuflw	$0xd4, %xmm4, %xmm4     # xmm4 = xmm4[0,1,1,3,4,5,6,7]
133700001f3c: 66 0f 70 e4 d4           	pshufd	$0xd4, %xmm4, %xmm4     # xmm4 = xmm4[0,1,1,3]
133700001f41: 66 0f db e3              	pand	%xmm3, %xmm4
133700001f45: 66 0f 64 ea              	pcmpgtb	%xmm2, %xmm5
133700001f49: 66 0f 60 ed              	punpcklbw	%xmm5, %xmm5    # xmm5 = xmm5[0,0,1,1,2,2,3,3,4,4,5,5,6,6,7,7]
133700001f4d: f2 0f 70 ed d4           	pshuflw	$0xd4, %xmm5, %xmm5     # xmm5 = xmm5[0,1,1,3,4,5,6,7]
133700001f52: 66 0f 70 ed d4           	pshufd	$0xd4, %xmm5, %xmm5     # xmm5 = xmm5[0,1,1,3]
133700001f57: 66 0f db eb              	pand	%xmm3, %xmm5
133700001f5b: 66 0f d4 c4              	paddq	%xmm4, %xmm0
133700001f5f: 66 0f d4 cd              	paddq	%xmm5, %xmm1
133700001f63: 83 fa 10                 	cmpl	$0x10, %edx
133700001f66: 0f 84 da 00 00 00        	je	0x133700002046 <_ZN4core3fmt9Formatter12pad_integral17h2670696f36a93076E+0x306>
133700001f6c: 0f b7 43 10              	movzwl	0x10(%rbx), %eax
133700001f70: 66 0f 6e e0              	movd	%eax, %xmm4
133700001f74: 0f b7 43 12              	movzwl	0x12(%rbx), %eax
133700001f78: 66 0f 6e e8              	movd	%eax, %xmm5
133700001f7c: 66 0f 64 e2              	pcmpgtb	%xmm2, %xmm4
133700001f80: 66 0f 60 e4              	punpcklbw	%xmm4, %xmm4    # xmm4 = xmm4[0,0,1,1,2,2,3,3,4,4,5,5,6,6,7,7]
133700001f84: f2 0f 70 e4 d4           	pshuflw	$0xd4, %xmm4, %xmm4     # xmm4 = xmm4[0,1,1,3,4,5,6,7]
133700001f89: 66 0f 70 e4 d4           	pshufd	$0xd4, %xmm4, %xmm4     # xmm4 = xmm4[0,1,1,3]
133700001f8e: 66 0f db e3              	pand	%xmm3, %xmm4
133700001f92: 66 0f 64 ea              	pcmpgtb	%xmm2, %xmm5
133700001f96: 66 0f 60 ed              	punpcklbw	%xmm5, %xmm5    # xmm5 = xmm5[0,0,1,1,2,2,3,3,4,4,5,5,6,6,7,7]
133700001f9a: f2 0f 70 ed d4           	pshuflw	$0xd4, %xmm5, %xmm5     # xmm5 = xmm5[0,1,1,3,4,5,6,7]
133700001f9f: 66 0f 70 ed d4           	pshufd	$0xd4, %xmm5, %xmm5     # xmm5 = xmm5[0,1,1,3]
133700001fa4: 66 0f db eb              	pand	%xmm3, %xmm5
133700001fa8: 66 0f d4 c4              	paddq	%xmm4, %xmm0
133700001fac: 66 0f d4 cd              	paddq	%xmm5, %xmm1
133700001fb0: 83 fa 14                 	cmpl	$0x14, %edx
133700001fb3: 0f 84 8d 00 00 00        	je	0x133700002046 <_ZN4core3fmt9Formatter12pad_integral17h2670696f36a93076E+0x306>
133700001fb9: 0f b7 43 14              	movzwl	0x14(%rbx), %eax
133700001fbd: 66 0f 6e e0              	movd	%eax, %xmm4
133700001fc1: 0f b7 43 16              	movzwl	0x16(%rbx), %eax
133700001fc5: 66 0f 6e e8              	movd	%eax, %xmm5
133700001fc9: 66 0f 64 e2              	pcmpgtb	%xmm2, %xmm4
133700001fcd: 66 0f 60 e4              	punpcklbw	%xmm4, %xmm4    # xmm4 = xmm4[0,0,1,1,2,2,3,3,4,4,5,5,6,6,7,7]
133700001fd1: f2 0f 70 e4 d4           	pshuflw	$0xd4, %xmm4, %xmm4     # xmm4 = xmm4[0,1,1,3,4,5,6,7]
133700001fd6: 66 0f 70 e4 d4           	pshufd	$0xd4, %xmm4, %xmm4     # xmm4 = xmm4[0,1,1,3]
133700001fdb: 66 0f db e3              	pand	%xmm3, %xmm4
133700001fdf: 66 0f 64 ea              	pcmpgtb	%xmm2, %xmm5
133700001fe3: 66 0f 60 ed              	punpcklbw	%xmm5, %xmm5    # xmm5 = xmm5[0,0,1,1,2,2,3,3,4,4,5,5,6,6,7,7]
133700001fe7: f2 0f 70 ed d4           	pshuflw	$0xd4, %xmm5, %xmm5     # xmm5 = xmm5[0,1,1,3,4,5,6,7]
133700001fec: 66 0f 70 ed d4           	pshufd	$0xd4, %xmm5, %xmm5     # xmm5 = xmm5[0,1,1,3]
133700001ff1: 66 0f db eb              	pand	%xmm3, %xmm5
133700001ff5: 66 0f d4 c4              	paddq	%xmm4, %xmm0
133700001ff9: 66 0f d4 cd              	paddq	%xmm5, %xmm1
133700001ffd: 83 fa 18                 	cmpl	$0x18, %edx
133700002000: 74 44                    	je	0x133700002046 <_ZN4core3fmt9Formatter12pad_integral17h2670696f36a93076E+0x306>
133700002002: 0f b7 43 18              	movzwl	0x18(%rbx), %eax
133700002006: 66 0f 6e e0              	movd	%eax, %xmm4
13370000200a: 0f b7 43 1a              	movzwl	0x1a(%rbx), %eax
13370000200e: 66 0f 6e e8              	movd	%eax, %xmm5
133700002012: 66 0f 64 e2              	pcmpgtb	%xmm2, %xmm4
133700002016: 66 0f 60 e4              	punpcklbw	%xmm4, %xmm4    # xmm4 = xmm4[0,0,1,1,2,2,3,3,4,4,5,5,6,6,7,7]
13370000201a: f2 0f 70 e4 d4           	pshuflw	$0xd4, %xmm4, %xmm4     # xmm4 = xmm4[0,1,1,3,4,5,6,7]
13370000201f: 66 0f 70 e4 d4           	pshufd	$0xd4, %xmm4, %xmm4     # xmm4 = xmm4[0,1,1,3]
133700002024: 66 0f db e3              	pand	%xmm3, %xmm4
133700002028: 66 0f 64 ea              	pcmpgtb	%xmm2, %xmm5
13370000202c: 66 0f 60 ed              	punpcklbw	%xmm5, %xmm5    # xmm5 = xmm5[0,0,1,1,2,2,3,3,4,4,5,5,6,6,7,7]
133700002030: f2 0f 70 d5 d4           	pshuflw	$0xd4, %xmm5, %xmm2     # xmm2 = xmm5[0,1,1,3,4,5,6,7]
133700002035: 66 0f 70 d2 d4           	pshufd	$0xd4, %xmm2, %xmm2     # xmm2 = xmm2[0,1,1,3]
13370000203a: 66 0f db d3              	pand	%xmm3, %xmm2
13370000203e: 66 0f d4 c4              	paddq	%xmm4, %xmm0
133700002042: 66 0f d4 ca              	paddq	%xmm2, %xmm1
133700002046: 66 0f d4 c1              	paddq	%xmm1, %xmm0
13370000204a: 66 0f 70 c8 ee           	pshufd	$0xee, %xmm0, %xmm1     # xmm1 = xmm0[2,3,2,3]
13370000204f: 66 0f d4 c8              	paddq	%xmm0, %xmm1
133700002053: 66 48 0f 7e c8           	movq	%xmm1, %rax
133700002058: 4c 39 f2                 	cmpq	%r14, %rdx
13370000205b: 74 19                    	je	0x133700002076 <_ZN4core3fmt9Formatter12pad_integral17h2670696f36a93076E+0x336>
13370000205d: 0f 1f 00                 	nopl	(%rax)
133700002060: 45 31 c9                 	xorl	%r9d, %r9d
133700002063: 80 3c 13 c0              	cmpb	$-0x40, (%rbx,%rdx)
133700002067: 41 0f 9d c1              	setge	%r9b
13370000206b: 4c 01 c8                 	addq	%r9, %rax
13370000206e: 48 ff c2                 	incq	%rdx
133700002071: 49 39 d6                 	cmpq	%rdx, %r14
133700002074: 75 ea                    	jne	0x133700002060 <_ZN4core3fmt9Formatter12pad_integral17h2670696f36a93076E+0x320>
133700002076: 49 01 c3                 	addq	%rax, %r11
133700002079: f6 01 01                 	testb	$0x1, (%rcx)
13370000207c: 0f 84 4d fd ff ff        	je	0x133700001dcf <_ZN4core3fmt9Formatter12pad_integral17h2670696f36a93076E+0x8f>
133700002082: 44 89 45 00              	movl	%r8d, (%rbp)
133700002086: 4c 8b 79 08              	movq	0x8(%rcx), %r15
13370000208a: 4d 29 df                 	subq	%r11, %r15
13370000208d: 76 2d                    	jbe	0x1337000020bc <_ZN4core3fmt9Formatter12pad_integral17h2670696f36a93076E+0x37c>
13370000208f: 48 89 75 e8              	movq	%rsi, -0x18(%rbp)
133700002093: 41 f6 c4 08              	testb	$0x8, %r12b
133700002097: 75 7c                    	jne	0x133700002115 <_ZN4core3fmt9Formatter12pad_integral17h2670696f36a93076E+0x3d5>
133700002099: 0f b6 71 38              	movzbl	0x38(%rcx), %esi
13370000209d: 48 8d 05 18 3f 00 00     	leaq	0x3f18(%rip), %rax      # 0x133700005fbc <_ZN4core7unicode12unicode_data15grapheme_extend7OFFSETS17hcba0531d78504049E+0x378>
1337000020a4: 48 63 14 b0              	movslq	(%rax,%rsi,4), %rdx
1337000020a8: 48 01 c2                 	addq	%rax, %rdx
1337000020ab: 4c 89 6d f8              	movq	%r13, -0x8(%rbp)
1337000020af: ff e2                    	jmpq	*%rdx
1337000020b1: 4c 89 fe                 	movq	%r15, %rsi
1337000020b4: 45 31 ff                 	xorl	%r15d, %r15d
1337000020b7: e9 f4 00 00 00           	jmp	0x1337000021b0 <_ZN4core3fmt9Formatter12pad_integral17h2670696f36a93076E+0x470>
1337000020bc: 48 8b 79 20              	movq	0x20(%rcx), %rdi
1337000020c0: 4c 8b 61 28              	movq	0x28(%rcx), %r12
1337000020c4: 4c 89 74 24 20           	movq	%r14, 0x20(%rsp)
1337000020c9: 48 89 f9                 	movq	%rdi, %rcx
1337000020cc: 4c 89 e2                 	movq	%r12, %rdx
1337000020cf: 44 8b 45 00              	movl	(%rbp), %r8d
1337000020d3: 49 89 d9                 	movq	%rbx, %r9
1337000020d6: e8 75 01 00 00           	callq	0x133700002250 <_ZN4core3fmt9Formatter12pad_integral12write_prefix17h9df23d88903f891aE>
1337000020db: b3 01                    	movb	$0x1, %bl
1337000020dd: 84 c0                    	testb	%al, %al
1337000020df: 74 13                    	je	0x1337000020f4 <_ZN4core3fmt9Formatter12pad_integral17h2670696f36a93076E+0x3b4>
1337000020e1: 89 d8                    	movl	%ebx, %eax
1337000020e3: 48 83 c4 48              	addq	$0x48, %rsp
1337000020e7: 5b                       	popq	%rbx
1337000020e8: 5f                       	popq	%rdi
1337000020e9: 5e                       	popq	%rsi
1337000020ea: 41 5c                    	popq	%r12
1337000020ec: 41 5d                    	popq	%r13
1337000020ee: 41 5e                    	popq	%r14
1337000020f0: 41 5f                    	popq	%r15
1337000020f2: 5d                       	popq	%rbp
1337000020f3: c3                       	retq
1337000020f4: 49 8b 44 24 18           	movq	0x18(%r12), %rax
1337000020f9: 48 89 f9                 	movq	%rdi, %rcx
1337000020fc: 48 89 f2                 	movq	%rsi, %rdx
1337000020ff: 4d 89 e8                 	movq	%r13, %r8
133700002102: 48 83 c4 48              	addq	$0x48, %rsp
133700002106: 5b                       	popq	%rbx
133700002107: 5f                       	popq	%rdi
133700002108: 5e                       	popq	%rsi
133700002109: 41 5c                    	popq	%r12
13370000210b: 41 5d                    	popq	%r13
13370000210d: 41 5e                    	popq	%r14
13370000210f: 41 5f                    	popq	%r15
133700002111: 5d                       	popq	%rbp
133700002112: 48 ff e0                 	jmpq	*%rax
133700002115: 4c 89 ee                 	movq	%r13, %rsi
133700002118: 8b 41 30                 	movl	0x30(%rcx), %eax
13370000211b: 89 45 f4                 	movl	%eax, -0xc(%rbp)
13370000211e: c7 41 30 30 00 00 00     	movl	$0x30, 0x30(%rcx)
133700002125: 0f b6 41 38              	movzbl	0x38(%rcx), %eax
133700002129: 88 45 07                 	movb	%al, 0x7(%rbp)
13370000212c: c6 41 38 01              	movb	$0x1, 0x38(%rcx)
133700002130: 4c 8b 61 20              	movq	0x20(%rcx), %r12
133700002134: 49 89 cd                 	movq	%rcx, %r13
133700002137: 48 8b 79 28              	movq	0x28(%rcx), %rdi
13370000213b: 4c 89 74 24 20           	movq	%r14, 0x20(%rsp)
133700002140: 4c 89 e1                 	movq	%r12, %rcx
133700002143: 48 89 fa                 	movq	%rdi, %rdx
133700002146: 44 8b 45 00              	movl	(%rbp), %r8d
13370000214a: 49 89 d9                 	movq	%rbx, %r9
13370000214d: e8 fe 00 00 00           	callq	0x133700002250 <_ZN4core3fmt9Formatter12pad_integral12write_prefix17h9df23d88903f891aE>
133700002152: b3 01                    	movb	$0x1, %bl
133700002154: 84 c0                    	testb	%al, %al
133700002156: 75 89                    	jne	0x1337000020e1 <_ZN4core3fmt9Formatter12pad_integral17h2670696f36a93076E+0x3a1>
133700002158: 49 ff c7                 	incq	%r15
13370000215b: 0f 1f 44 00 00           	nopl	(%rax,%rax)
133700002160: 49 ff cf                 	decq	%r15
133700002163: 74 14                    	je	0x133700002179 <_ZN4core3fmt9Formatter12pad_integral17h2670696f36a93076E+0x439>
133700002165: 4c 89 e1                 	movq	%r12, %rcx
133700002168: ba 30 00 00 00           	movl	$0x30, %edx
13370000216d: ff 57 20                 	callq	*0x20(%rdi)
133700002170: 84 c0                    	testb	%al, %al
133700002172: 74 ec                    	je	0x133700002160 <_ZN4core3fmt9Formatter12pad_integral17h2670696f36a93076E+0x420>
133700002174: e9 68 ff ff ff           	jmp	0x1337000020e1 <_ZN4core3fmt9Formatter12pad_integral17h2670696f36a93076E+0x3a1>
133700002179: 4c 89 e1                 	movq	%r12, %rcx
13370000217c: 48 8b 55 e8              	movq	-0x18(%rbp), %rdx
133700002180: 49 89 f0                 	movq	%rsi, %r8
133700002183: ff 57 18                 	callq	*0x18(%rdi)
133700002186: 84 c0                    	testb	%al, %al
133700002188: 0f 85 53 ff ff ff        	jne	0x1337000020e1 <_ZN4core3fmt9Formatter12pad_integral17h2670696f36a93076E+0x3a1>
13370000218e: 8b 45 f4                 	movl	-0xc(%rbp), %eax
133700002191: 41 89 45 30              	movl	%eax, 0x30(%r13)
133700002195: 0f b6 45 07              	movzbl	0x7(%rbp), %eax
133700002199: 41 88 45 38              	movb	%al, 0x38(%r13)
13370000219d: 31 db                    	xorl	%ebx, %ebx
13370000219f: e9 3d ff ff ff           	jmp	0x1337000020e1 <_ZN4core3fmt9Formatter12pad_integral17h2670696f36a93076E+0x3a1>
1337000021a4: 4c 89 fe                 	movq	%r15, %rsi
1337000021a7: 48 d1 ee                 	shrq	%rsi
1337000021aa: 49 ff c7                 	incq	%r15
1337000021ad: 49 d1 ef                 	shrq	%r15
1337000021b0: 4c 8b 61 20              	movq	0x20(%rcx), %r12
1337000021b4: 4c 8b 69 28              	movq	0x28(%rcx), %r13
1337000021b8: 8b 79 30                 	movl	0x30(%rcx), %edi
1337000021bb: 48 ff c6                 	incq	%rsi
1337000021be: 66 90                    	nop
1337000021c0: 48 ff ce                 	decq	%rsi
1337000021c3: 74 14                    	je	0x1337000021d9 <_ZN4core3fmt9Formatter12pad_integral17h2670696f36a93076E+0x499>
1337000021c5: 4c 89 e1                 	movq	%r12, %rcx
1337000021c8: 89 fa                    	movl	%edi, %edx
1337000021ca: 41 ff 55 20              	callq	*0x20(%r13)
1337000021ce: 84 c0                    	testb	%al, %al
1337000021d0: 74 ee                    	je	0x1337000021c0 <_ZN4core3fmt9Formatter12pad_integral17h2670696f36a93076E+0x480>
1337000021d2: b3 01                    	movb	$0x1, %bl
1337000021d4: e9 08 ff ff ff           	jmp	0x1337000020e1 <_ZN4core3fmt9Formatter12pad_integral17h2670696f36a93076E+0x3a1>
1337000021d9: 4c 89 74 24 20           	movq	%r14, 0x20(%rsp)
1337000021de: 4c 89 e1                 	movq	%r12, %rcx
1337000021e1: 4c 89 ea                 	movq	%r13, %rdx
1337000021e4: 44 8b 45 00              	movl	(%rbp), %r8d
1337000021e8: 49 89 d9                 	movq	%rbx, %r9
1337000021eb: e8 60 00 00 00           	callq	0x133700002250 <_ZN4core3fmt9Formatter12pad_integral12write_prefix17h9df23d88903f891aE>
1337000021f0: b3 01                    	movb	$0x1, %bl
1337000021f2: 84 c0                    	testb	%al, %al
1337000021f4: 0f 85 e7 fe ff ff        	jne	0x1337000020e1 <_ZN4core3fmt9Formatter12pad_integral17h2670696f36a93076E+0x3a1>
1337000021fa: 4c 89 e1                 	movq	%r12, %rcx
1337000021fd: 48 8b 55 e8              	movq	-0x18(%rbp), %rdx
133700002201: 4c 8b 45 f8              	movq	-0x8(%rbp), %r8
133700002205: 41 ff 55 18              	callq	*0x18(%r13)
133700002209: 84 c0                    	testb	%al, %al
13370000220b: 0f 85 d0 fe ff ff        	jne	0x1337000020e1 <_ZN4core3fmt9Formatter12pad_integral17h2670696f36a93076E+0x3a1>
133700002211: 4c 89 fb                 	movq	%r15, %rbx
133700002214: 48 f7 db                 	negq	%rbx
133700002217: 48 c7 c6 ff ff ff ff     	movq	$-0x1, %rsi
13370000221e: 66 90                    	nop
133700002220: 48 8d 04 33              	leaq	(%rbx,%rsi), %rax
133700002224: 48 83 f8 ff              	cmpq	$-0x1, %rax
133700002228: 74 12                    	je	0x13370000223c <_ZN4core3fmt9Formatter12pad_integral17h2670696f36a93076E+0x4fc>
13370000222a: 4c 89 e1                 	movq	%r12, %rcx
13370000222d: 89 fa                    	movl	%edi, %edx
13370000222f: 41 ff 55 20              	callq	*0x20(%r13)
133700002233: 48 ff c6                 	incq	%rsi
133700002236: 84 c0                    	testb	%al, %al
133700002238: 74 e6                    	je	0x133700002220 <_ZN4core3fmt9Formatter12pad_integral17h2670696f36a93076E+0x4e0>
13370000223a: eb 03                    	jmp	0x13370000223f <_ZN4core3fmt9Formatter12pad_integral17h2670696f36a93076E+0x4ff>
13370000223c: 4c 89 fe                 	movq	%r15, %rsi
13370000223f: 4c 39 fe                 	cmpq	%r15, %rsi
133700002242: 0f 92 c3                 	setb	%bl
133700002245: e9 97 fe ff ff           	jmp	0x1337000020e1 <_ZN4core3fmt9Formatter12pad_integral17h2670696f36a93076E+0x3a1>
13370000224a: cc                       	int3
13370000224b: cc                       	int3
13370000224c: cc                       	int3
13370000224d: cc                       	int3
13370000224e: cc                       	int3
13370000224f: cc                       	int3

0000133700002250 <_ZN4core3fmt9Formatter12pad_integral12write_prefix17h9df23d88903f891aE>:
133700002250: 55                       	pushq	%rbp
133700002251: 41 56                    	pushq	%r14
133700002253: 56                       	pushq	%rsi
133700002254: 57                       	pushq	%rdi
133700002255: 53                       	pushq	%rbx
133700002256: 48 83 ec 20              	subq	$0x20, %rsp
13370000225a: 48 8d 6c 24 20           	leaq	0x20(%rsp), %rbp
13370000225f: 4c 89 ce                 	movq	%r9, %rsi
133700002262: 48 89 d3                 	movq	%rdx, %rbx
133700002265: 48 8b 7d 50              	movq	0x50(%rbp), %rdi
133700002269: 41 81 f8 00 00 11 00     	cmpl	$0x110000, %r8d         # imm = 0x110000
133700002270: 74 14                    	je	0x133700002286 <_ZN4core3fmt9Formatter12pad_integral12write_prefix17h9df23d88903f891aE+0x36>
133700002272: 49 89 ce                 	movq	%rcx, %r14
133700002275: 44 89 c2                 	movl	%r8d, %edx
133700002278: ff 53 20                 	callq	*0x20(%rbx)
13370000227b: 4c 89 f1                 	movq	%r14, %rcx
13370000227e: 89 c2                    	movl	%eax, %edx
133700002280: b0 01                    	movb	$0x1, %al
133700002282: 84 d2                    	testb	%dl, %dl
133700002284: 75 1e                    	jne	0x1337000022a4 <_ZN4core3fmt9Formatter12pad_integral12write_prefix17h9df23d88903f891aE+0x54>
133700002286: 48 85 f6                 	testq	%rsi, %rsi
133700002289: 74 17                    	je	0x1337000022a2 <_ZN4core3fmt9Formatter12pad_integral12write_prefix17h9df23d88903f891aE+0x52>
13370000228b: 48 8b 43 18              	movq	0x18(%rbx), %rax
13370000228f: 48 89 f2                 	movq	%rsi, %rdx
133700002292: 49 89 f8                 	movq	%rdi, %r8
133700002295: 48 83 c4 20              	addq	$0x20, %rsp
133700002299: 5b                       	popq	%rbx
13370000229a: 5f                       	popq	%rdi
13370000229b: 5e                       	popq	%rsi
13370000229c: 41 5e                    	popq	%r14
13370000229e: 5d                       	popq	%rbp
13370000229f: 48 ff e0                 	jmpq	*%rax
1337000022a2: 31 c0                    	xorl	%eax, %eax
1337000022a4: 48 83 c4 20              	addq	$0x20, %rsp
1337000022a8: 5b                       	popq	%rbx
1337000022a9: 5f                       	popq	%rdi
1337000022aa: 5e                       	popq	%rsi
1337000022ab: 41 5e                    	popq	%r14
1337000022ad: 5d                       	popq	%rbp
1337000022ae: c3                       	retq
1337000022af: cc                       	int3

00001337000022b0 <_ZN4core3fmt9Formatter3pad17hceca36268d3ff455E>:
1337000022b0: 55                       	pushq	%rbp
1337000022b1: 41 57                    	pushq	%r15
1337000022b3: 41 56                    	pushq	%r14
1337000022b5: 41 55                    	pushq	%r13
1337000022b7: 41 54                    	pushq	%r12
1337000022b9: 56                       	pushq	%rsi
1337000022ba: 57                       	pushq	%rdi
1337000022bb: 53                       	pushq	%rbx
1337000022bc: 48 83 ec 28              	subq	$0x28, %rsp
1337000022c0: 48 8d 6c 24 20           	leaq	0x20(%rsp), %rbp
1337000022c5: 4c 89 c6                 	movq	%r8, %rsi
1337000022c8: 48 89 d7                 	movq	%rdx, %rdi
1337000022cb: 0f b6 01                 	movzbl	(%rcx), %eax
1337000022ce: 48 8b 51 10              	movq	0x10(%rcx), %rdx
1337000022d2: a8 01                    	testb	$0x1, %al
1337000022d4: 75 09                    	jne	0x1337000022df <_ZN4core3fmt9Formatter3pad17hceca36268d3ff455E+0x2f>
1337000022d6: f6 c2 01                 	testb	$0x1, %dl
1337000022d9: 0f 84 49 03 00 00        	je	0x133700002628 <_ZN4core3fmt9Formatter3pad17hceca36268d3ff455E+0x378>
1337000022df: f6 c2 01                 	testb	$0x1, %dl
1337000022e2: 0f 84 9a 00 00 00        	je	0x133700002382 <_ZN4core3fmt9Formatter3pad17hceca36268d3ff455E+0xd2>
1337000022e8: 4c 8b 49 18              	movq	0x18(%rcx), %r9
1337000022ec: 4c 8d 04 37              	leaq	(%rdi,%rsi), %r8
1337000022f0: 31 d2                    	xorl	%edx, %edx
1337000022f2: 4d 85 c9                 	testq	%r9, %r9
1337000022f5: 74 4a                    	je	0x133700002341 <_ZN4core3fmt9Formatter3pad17hceca36268d3ff455E+0x91>
1337000022f7: 49 89 fa                 	movq	%rdi, %r10
1337000022fa: eb 19                    	jmp	0x133700002315 <_ZN4core3fmt9Formatter3pad17hceca36268d3ff455E+0x65>
1337000022fc: 0f 1f 40 00              	nopl	(%rax)
133700002300: 4d 8d 5a 01              	leaq	0x1(%r10), %r11
133700002304: 4c 89 db                 	movq	%r11, %rbx
133700002307: 4c 29 d3                 	subq	%r10, %rbx
13370000230a: 48 01 da                 	addq	%rbx, %rdx
13370000230d: 4d 89 da                 	movq	%r11, %r10
133700002310: 49 ff c9                 	decq	%r9
133700002313: 74 2f                    	je	0x133700002344 <_ZN4core3fmt9Formatter3pad17hceca36268d3ff455E+0x94>
133700002315: 4d 39 c2                 	cmpq	%r8, %r10
133700002318: 74 68                    	je	0x133700002382 <_ZN4core3fmt9Formatter3pad17hceca36268d3ff455E+0xd2>
13370000231a: 45 0f b6 1a              	movzbl	(%r10), %r11d
13370000231e: 45 84 db                 	testb	%r11b, %r11b
133700002321: 79 dd                    	jns	0x133700002300 <_ZN4core3fmt9Formatter3pad17hceca36268d3ff455E+0x50>
133700002323: 41 80 fb e0              	cmpb	$-0x20, %r11b
133700002327: 72 0c                    	jb	0x133700002335 <_ZN4core3fmt9Formatter3pad17hceca36268d3ff455E+0x85>
133700002329: 41 80 fb f0              	cmpb	$-0x10, %r11b
13370000232d: 72 0c                    	jb	0x13370000233b <_ZN4core3fmt9Formatter3pad17hceca36268d3ff455E+0x8b>
13370000232f: 4d 8d 5a 04              	leaq	0x4(%r10), %r11
133700002333: eb cf                    	jmp	0x133700002304 <_ZN4core3fmt9Formatter3pad17hceca36268d3ff455E+0x54>
133700002335: 4d 8d 5a 02              	leaq	0x2(%r10), %r11
133700002339: eb c9                    	jmp	0x133700002304 <_ZN4core3fmt9Formatter3pad17hceca36268d3ff455E+0x54>
13370000233b: 4d 8d 5a 03              	leaq	0x3(%r10), %r11
13370000233f: eb c3                    	jmp	0x133700002304 <_ZN4core3fmt9Formatter3pad17hceca36268d3ff455E+0x54>
133700002341: 49 89 fb                 	movq	%rdi, %r11
133700002344: 4d 39 c3                 	cmpq	%r8, %r11
133700002347: 74 39                    	je	0x133700002382 <_ZN4core3fmt9Formatter3pad17hceca36268d3ff455E+0xd2>
133700002349: 45 0f b6 03              	movzbl	(%r11), %r8d
13370000234d: 45 84 c0                 	testb	%r8b, %r8b
133700002350: 78 07                    	js	0x133700002359 <_ZN4core3fmt9Formatter3pad17hceca36268d3ff455E+0xa9>
133700002352: 48 85 d2                 	testq	%rdx, %rdx
133700002355: 75 0b                    	jne	0x133700002362 <_ZN4core3fmt9Formatter3pad17hceca36268d3ff455E+0xb2>
133700002357: eb 1b                    	jmp	0x133700002374 <_ZN4core3fmt9Formatter3pad17hceca36268d3ff455E+0xc4>
133700002359: 41 80 f8 e0              	cmpb	$-0x20, %r8b
13370000235d: 48 85 d2                 	testq	%rdx, %rdx
133700002360: 74 12                    	je	0x133700002374 <_ZN4core3fmt9Formatter3pad17hceca36268d3ff455E+0xc4>
133700002362: 48 39 f2                 	cmpq	%rsi, %rdx
133700002365: 73 0b                    	jae	0x133700002372 <_ZN4core3fmt9Formatter3pad17hceca36268d3ff455E+0xc2>
133700002367: 80 3c 17 bf              	cmpb	$-0x41, (%rdi,%rdx)
13370000236b: 7f 07                    	jg	0x133700002374 <_ZN4core3fmt9Formatter3pad17hceca36268d3ff455E+0xc4>
13370000236d: 45 31 c0                 	xorl	%r8d, %r8d
133700002370: eb 05                    	jmp	0x133700002377 <_ZN4core3fmt9Formatter3pad17hceca36268d3ff455E+0xc7>
133700002372: 75 f9                    	jne	0x13370000236d <_ZN4core3fmt9Formatter3pad17hceca36268d3ff455E+0xbd>
133700002374: 49 89 f8                 	movq	%rdi, %r8
133700002377: 4d 85 c0                 	testq	%r8, %r8
13370000237a: 48 0f 45 f2              	cmovneq	%rdx, %rsi
13370000237e: 49 0f 45 f8              	cmovneq	%r8, %rdi
133700002382: a8 01                    	testb	$0x1, %al
133700002384: 0f 84 9e 02 00 00        	je	0x133700002628 <_ZN4core3fmt9Formatter3pad17hceca36268d3ff455E+0x378>
13370000238a: 4c 8b 79 08              	movq	0x8(%rcx), %r15
13370000238e: 48 83 fe 20              	cmpq	$0x20, %rsi
133700002392: 73 14                    	jae	0x1337000023a8 <_ZN4core3fmt9Formatter3pad17hceca36268d3ff455E+0xf8>
133700002394: 48 85 f6                 	testq	%rsi, %rsi
133700002397: 74 25                    	je	0x1337000023be <_ZN4core3fmt9Formatter3pad17hceca36268d3ff455E+0x10e>
133700002399: 48 83 fe 04              	cmpq	$0x4, %rsi
13370000239d: 73 26                    	jae	0x1337000023c5 <_ZN4core3fmt9Formatter3pad17hceca36268d3ff455E+0x115>
13370000239f: 31 c0                    	xorl	%eax, %eax
1337000023a1: 31 d2                    	xorl	%edx, %edx
1337000023a3: e9 4c 02 00 00           	jmp	0x1337000025f4 <_ZN4core3fmt9Formatter3pad17hceca36268d3ff455E+0x344>
1337000023a8: 48 89 cb                 	movq	%rcx, %rbx
1337000023ab: 48 89 f9                 	movq	%rdi, %rcx
1337000023ae: 48 89 f2                 	movq	%rsi, %rdx
1337000023b1: e8 6a 07 00 00           	callq	0x133700002b20 <_ZN4core3str5count14do_count_chars17haef711cfa931ccd4E>
1337000023b6: 48 89 d9                 	movq	%rbx, %rcx
1337000023b9: e9 4c 02 00 00           	jmp	0x13370000260a <_ZN4core3fmt9Formatter3pad17hceca36268d3ff455E+0x35a>
1337000023be: 31 c0                    	xorl	%eax, %eax
1337000023c0: e9 45 02 00 00           	jmp	0x13370000260a <_ZN4core3fmt9Formatter3pad17hceca36268d3ff455E+0x35a>
1337000023c5: 89 f2                    	movl	%esi, %edx
1337000023c7: 83 e2 1c                 	andl	$0x1c, %edx
1337000023ca: 0f b7 07                 	movzwl	(%rdi), %eax
1337000023cd: 66 0f 6e c0              	movd	%eax, %xmm0
1337000023d1: 0f b7 47 02              	movzwl	0x2(%rdi), %eax
1337000023d5: 66 0f 6e c8              	movd	%eax, %xmm1
1337000023d9: 66 0f 6f 15 4f 2d 00 00  	movdqa	0x2d4f(%rip), %xmm2     # 0x133700005130 <__xmm@0000000000000000000000000000bfbf>
1337000023e1: 66 0f 64 c2              	pcmpgtb	%xmm2, %xmm0
1337000023e5: 66 0f 60 c0              	punpcklbw	%xmm0, %xmm0    # xmm0 = xmm0[0,0,1,1,2,2,3,3,4,4,5,5,6,6,7,7]
1337000023e9: f2 0f 70 c0 d4           	pshuflw	$0xd4, %xmm0, %xmm0     # xmm0 = xmm0[0,1,1,3,4,5,6,7]
1337000023ee: 66 0f 70 c0 d4           	pshufd	$0xd4, %xmm0, %xmm0     # xmm0 = xmm0[0,1,1,3]
1337000023f3: 66 0f 6f 1d 45 2d 00 00  	movdqa	0x2d45(%rip), %xmm3     # 0x133700005140 <__xmm@00000000000000010000000000000001>
1337000023fb: 66 0f db c3              	pand	%xmm3, %xmm0
1337000023ff: 66 0f 64 ca              	pcmpgtb	%xmm2, %xmm1
133700002403: 66 0f 60 c9              	punpcklbw	%xmm1, %xmm1    # xmm1 = xmm1[0,0,1,1,2,2,3,3,4,4,5,5,6,6,7,7]
133700002407: f2 0f 70 c9 d4           	pshuflw	$0xd4, %xmm1, %xmm1     # xmm1 = xmm1[0,1,1,3,4,5,6,7]
13370000240c: 66 0f 70 c9 d4           	pshufd	$0xd4, %xmm1, %xmm1     # xmm1 = xmm1[0,1,1,3]
133700002411: 66 0f db cb              	pand	%xmm3, %xmm1
133700002415: 48 83 fa 04              	cmpq	$0x4, %rdx
133700002419: 0f 84 c1 01 00 00        	je	0x1337000025e0 <_ZN4core3fmt9Formatter3pad17hceca36268d3ff455E+0x330>
13370000241f: 0f b7 47 04              	movzwl	0x4(%rdi), %eax
133700002423: 66 0f 6e e0              	movd	%eax, %xmm4
133700002427: 0f b7 47 06              	movzwl	0x6(%rdi), %eax
13370000242b: 66 0f 6e e8              	movd	%eax, %xmm5
13370000242f: 66 0f 64 e2              	pcmpgtb	%xmm2, %xmm4
133700002433: 66 0f 60 e4              	punpcklbw	%xmm4, %xmm4    # xmm4 = xmm4[0,0,1,1,2,2,3,3,4,4,5,5,6,6,7,7]
133700002437: f2 0f 70 e4 d4           	pshuflw	$0xd4, %xmm4, %xmm4     # xmm4 = xmm4[0,1,1,3,4,5,6,7]
13370000243c: 66 0f 70 e4 d4           	pshufd	$0xd4, %xmm4, %xmm4     # xmm4 = xmm4[0,1,1,3]
133700002441: 66 0f db e3              	pand	%xmm3, %xmm4
133700002445: 66 0f 64 ea              	pcmpgtb	%xmm2, %xmm5
133700002449: 66 0f 60 ed              	punpcklbw	%xmm5, %xmm5    # xmm5 = xmm5[0,0,1,1,2,2,3,3,4,4,5,5,6,6,7,7]
13370000244d: f2 0f 70 ed d4           	pshuflw	$0xd4, %xmm5, %xmm5     # xmm5 = xmm5[0,1,1,3,4,5,6,7]
133700002452: 66 0f 70 ed d4           	pshufd	$0xd4, %xmm5, %xmm5     # xmm5 = xmm5[0,1,1,3]
133700002457: 66 0f db eb              	pand	%xmm3, %xmm5
13370000245b: 66 0f d4 c4              	paddq	%xmm4, %xmm0
13370000245f: 66 0f d4 cd              	paddq	%xmm5, %xmm1
133700002463: 83 fa 08                 	cmpl	$0x8, %edx
133700002466: 0f 84 74 01 00 00        	je	0x1337000025e0 <_ZN4core3fmt9Formatter3pad17hceca36268d3ff455E+0x330>
13370000246c: 0f b7 47 08              	movzwl	0x8(%rdi), %eax
133700002470: 66 0f 6e e0              	movd	%eax, %xmm4
133700002474: 0f b7 47 0a              	movzwl	0xa(%rdi), %eax
133700002478: 66 0f 6e e8              	movd	%eax, %xmm5
13370000247c: 66 0f 64 e2              	pcmpgtb	%xmm2, %xmm4
133700002480: 66 0f 60 e4              	punpcklbw	%xmm4, %xmm4    # xmm4 = xmm4[0,0,1,1,2,2,3,3,4,4,5,5,6,6,7,7]
133700002484: f2 0f 70 e4 d4           	pshuflw	$0xd4, %xmm4, %xmm4     # xmm4 = xmm4[0,1,1,3,4,5,6,7]
133700002489: 66 0f 70 e4 d4           	pshufd	$0xd4, %xmm4, %xmm4     # xmm4 = xmm4[0,1,1,3]
13370000248e: 66 0f db e3              	pand	%xmm3, %xmm4
133700002492: 66 0f 64 ea              	pcmpgtb	%xmm2, %xmm5
133700002496: 66 0f 60 ed              	punpcklbw	%xmm5, %xmm5    # xmm5 = xmm5[0,0,1,1,2,2,3,3,4,4,5,5,6,6,7,7]
13370000249a: f2 0f 70 ed d4           	pshuflw	$0xd4, %xmm5, %xmm5     # xmm5 = xmm5[0,1,1,3,4,5,6,7]
13370000249f: 66 0f 70 ed d4           	pshufd	$0xd4, %xmm5, %xmm5     # xmm5 = xmm5[0,1,1,3]
1337000024a4: 66 0f db eb              	pand	%xmm3, %xmm5
1337000024a8: 66 0f d4 c4              	paddq	%xmm4, %xmm0
1337000024ac: 66 0f d4 cd              	paddq	%xmm5, %xmm1
1337000024b0: 83 fa 0c                 	cmpl	$0xc, %edx
1337000024b3: 0f 84 27 01 00 00        	je	0x1337000025e0 <_ZN4core3fmt9Formatter3pad17hceca36268d3ff455E+0x330>
1337000024b9: 0f b7 47 0c              	movzwl	0xc(%rdi), %eax
1337000024bd: 66 0f 6e e0              	movd	%eax, %xmm4
1337000024c1: 0f b7 47 0e              	movzwl	0xe(%rdi), %eax
1337000024c5: 66 0f 6e e8              	movd	%eax, %xmm5
1337000024c9: 66 0f 64 e2              	pcmpgtb	%xmm2, %xmm4
1337000024cd: 66 0f 60 e4              	punpcklbw	%xmm4, %xmm4    # xmm4 = xmm4[0,0,1,1,2,2,3,3,4,4,5,5,6,6,7,7]
1337000024d1: f2 0f 70 e4 d4           	pshuflw	$0xd4, %xmm4, %xmm4     # xmm4 = xmm4[0,1,1,3,4,5,6,7]
1337000024d6: 66 0f 70 e4 d4           	pshufd	$0xd4, %xmm4, %xmm4     # xmm4 = xmm4[0,1,1,3]
1337000024db: 66 0f db e3              	pand	%xmm3, %xmm4
1337000024df: 66 0f 64 ea              	pcmpgtb	%xmm2, %xmm5
1337000024e3: 66 0f 60 ed              	punpcklbw	%xmm5, %xmm5    # xmm5 = xmm5[0,0,1,1,2,2,3,3,4,4,5,5,6,6,7,7]
1337000024e7: f2 0f 70 ed d4           	pshuflw	$0xd4, %xmm5, %xmm5     # xmm5 = xmm5[0,1,1,3,4,5,6,7]
1337000024ec: 66 0f 70 ed d4           	pshufd	$0xd4, %xmm5, %xmm5     # xmm5 = xmm5[0,1,1,3]
1337000024f1: 66 0f db eb              	pand	%xmm3, %xmm5
1337000024f5: 66 0f d4 c4              	paddq	%xmm4, %xmm0
1337000024f9: 66 0f d4 cd              	paddq	%xmm5, %xmm1
1337000024fd: 83 fa 10                 	cmpl	$0x10, %edx
133700002500: 0f 84 da 00 00 00        	je	0x1337000025e0 <_ZN4core3fmt9Formatter3pad17hceca36268d3ff455E+0x330>
133700002506: 0f b7 47 10              	movzwl	0x10(%rdi), %eax
13370000250a: 66 0f 6e e0              	movd	%eax, %xmm4
13370000250e: 0f b7 47 12              	movzwl	0x12(%rdi), %eax
133700002512: 66 0f 6e e8              	movd	%eax, %xmm5
133700002516: 66 0f 64 e2              	pcmpgtb	%xmm2, %xmm4
13370000251a: 66 0f 60 e4              	punpcklbw	%xmm4, %xmm4    # xmm4 = xmm4[0,0,1,1,2,2,3,3,4,4,5,5,6,6,7,7]
13370000251e: f2 0f 70 e4 d4           	pshuflw	$0xd4, %xmm4, %xmm4     # xmm4 = xmm4[0,1,1,3,4,5,6,7]
133700002523: 66 0f 70 e4 d4           	pshufd	$0xd4, %xmm4, %xmm4     # xmm4 = xmm4[0,1,1,3]
133700002528: 66 0f db e3              	pand	%xmm3, %xmm4
13370000252c: 66 0f 64 ea              	pcmpgtb	%xmm2, %xmm5
133700002530: 66 0f 60 ed              	punpcklbw	%xmm5, %xmm5    # xmm5 = xmm5[0,0,1,1,2,2,3,3,4,4,5,5,6,6,7,7]
133700002534: f2 0f 70 ed d4           	pshuflw	$0xd4, %xmm5, %xmm5     # xmm5 = xmm5[0,1,1,3,4,5,6,7]
133700002539: 66 0f 70 ed d4           	pshufd	$0xd4, %xmm5, %xmm5     # xmm5 = xmm5[0,1,1,3]
13370000253e: 66 0f db eb              	pand	%xmm3, %xmm5
133700002542: 66 0f d4 c4              	paddq	%xmm4, %xmm0
133700002546: 66 0f d4 cd              	paddq	%xmm5, %xmm1
13370000254a: 83 fa 14                 	cmpl	$0x14, %edx
13370000254d: 0f 84 8d 00 00 00        	je	0x1337000025e0 <_ZN4core3fmt9Formatter3pad17hceca36268d3ff455E+0x330>
133700002553: 0f b7 47 14              	movzwl	0x14(%rdi), %eax
133700002557: 66 0f 6e e0              	movd	%eax, %xmm4
13370000255b: 0f b7 47 16              	movzwl	0x16(%rdi), %eax
13370000255f: 66 0f 6e e8              	movd	%eax, %xmm5
133700002563: 66 0f 64 e2              	pcmpgtb	%xmm2, %xmm4
133700002567: 66 0f 60 e4              	punpcklbw	%xmm4, %xmm4    # xmm4 = xmm4[0,0,1,1,2,2,3,3,4,4,5,5,6,6,7,7]
13370000256b: f2 0f 70 e4 d4           	pshuflw	$0xd4, %xmm4, %xmm4     # xmm4 = xmm4[0,1,1,3,4,5,6,7]
133700002570: 66 0f 70 e4 d4           	pshufd	$0xd4, %xmm4, %xmm4     # xmm4 = xmm4[0,1,1,3]
133700002575: 66 0f db e3              	pand	%xmm3, %xmm4
133700002579: 66 0f 64 ea              	pcmpgtb	%xmm2, %xmm5
13370000257d: 66 0f 60 ed              	punpcklbw	%xmm5, %xmm5    # xmm5 = xmm5[0,0,1,1,2,2,3,3,4,4,5,5,6,6,7,7]
133700002581: f2 0f 70 ed d4           	pshuflw	$0xd4, %xmm5, %xmm5     # xmm5 = xmm5[0,1,1,3,4,5,6,7]
133700002586: 66 0f 70 ed d4           	pshufd	$0xd4, %xmm5, %xmm5     # xmm5 = xmm5[0,1,1,3]
13370000258b: 66 0f db eb              	pand	%xmm3, %xmm5
13370000258f: 66 0f d4 c4              	paddq	%xmm4, %xmm0
133700002593: 66 0f d4 cd              	paddq	%xmm5, %xmm1
133700002597: 83 fa 18                 	cmpl	$0x18, %edx
13370000259a: 74 44                    	je	0x1337000025e0 <_ZN4core3fmt9Formatter3pad17hceca36268d3ff455E+0x330>
13370000259c: 0f b7 47 18              	movzwl	0x18(%rdi), %eax
1337000025a0: 66 0f 6e e0              	movd	%eax, %xmm4
1337000025a4: 0f b7 47 1a              	movzwl	0x1a(%rdi), %eax
1337000025a8: 66 0f 6e e8              	movd	%eax, %xmm5
1337000025ac: 66 0f 64 e2              	pcmpgtb	%xmm2, %xmm4
1337000025b0: 66 0f 60 e4              	punpcklbw	%xmm4, %xmm4    # xmm4 = xmm4[0,0,1,1,2,2,3,3,4,4,5,5,6,6,7,7]
1337000025b4: f2 0f 70 e4 d4           	pshuflw	$0xd4, %xmm4, %xmm4     # xmm4 = xmm4[0,1,1,3,4,5,6,7]
1337000025b9: 66 0f 70 e4 d4           	pshufd	$0xd4, %xmm4, %xmm4     # xmm4 = xmm4[0,1,1,3]
1337000025be: 66 0f db e3              	pand	%xmm3, %xmm4
1337000025c2: 66 0f 64 ea              	pcmpgtb	%xmm2, %xmm5
1337000025c6: 66 0f 60 ed              	punpcklbw	%xmm5, %xmm5    # xmm5 = xmm5[0,0,1,1,2,2,3,3,4,4,5,5,6,6,7,7]
1337000025ca: f2 0f 70 d5 d4           	pshuflw	$0xd4, %xmm5, %xmm2     # xmm2 = xmm5[0,1,1,3,4,5,6,7]
1337000025cf: 66 0f 70 d2 d4           	pshufd	$0xd4, %xmm2, %xmm2     # xmm2 = xmm2[0,1,1,3]
1337000025d4: 66 0f db d3              	pand	%xmm3, %xmm2
1337000025d8: 66 0f d4 c4              	paddq	%xmm4, %xmm0
1337000025dc: 66 0f d4 ca              	paddq	%xmm2, %xmm1
1337000025e0: 66 0f d4 c1              	paddq	%xmm1, %xmm0
1337000025e4: 66 0f 70 c8 ee           	pshufd	$0xee, %xmm0, %xmm1     # xmm1 = xmm0[2,3,2,3]
1337000025e9: 66 0f d4 c8              	paddq	%xmm0, %xmm1
1337000025ed: 66 48 0f 7e c8           	movq	%xmm1, %rax
1337000025f2: eb 11                    	jmp	0x133700002605 <_ZN4core3fmt9Formatter3pad17hceca36268d3ff455E+0x355>
1337000025f4: 45 31 c0                 	xorl	%r8d, %r8d
1337000025f7: 80 3c 17 c0              	cmpb	$-0x40, (%rdi,%rdx)
1337000025fb: 41 0f 9d c0              	setge	%r8b
1337000025ff: 4c 01 c0                 	addq	%r8, %rax
133700002602: 48 ff c2                 	incq	%rdx
133700002605: 48 39 d6                 	cmpq	%rdx, %rsi
133700002608: 75 ea                    	jne	0x1337000025f4 <_ZN4core3fmt9Formatter3pad17hceca36268d3ff455E+0x344>
13370000260a: 49 29 c7                 	subq	%rax, %r15
13370000260d: 76 19                    	jbe	0x133700002628 <_ZN4core3fmt9Formatter3pad17hceca36268d3ff455E+0x378>
13370000260f: 0f b6 41 38              	movzbl	0x38(%rcx), %eax
133700002613: 48 8d 15 b2 39 00 00     	leaq	0x39b2(%rip), %rdx      # 0x133700005fcc <_ZN4core7unicode12unicode_data15grapheme_extend7OFFSETS17hcba0531d78504049E+0x388>
13370000261a: 48 63 04 82              	movslq	(%rdx,%rax,4), %rax
13370000261e: 48 01 d0                 	addq	%rdx, %rax
133700002621: ff e0                    	jmpq	*%rax
133700002623: 45 31 ed                 	xorl	%r13d, %r13d
133700002626: eb 3c                    	jmp	0x133700002664 <_ZN4core3fmt9Formatter3pad17hceca36268d3ff455E+0x3b4>
133700002628: 48 8b 41 20              	movq	0x20(%rcx), %rax
13370000262c: 48 8b 49 28              	movq	0x28(%rcx), %rcx
133700002630: 4c 8b 49 18              	movq	0x18(%rcx), %r9
133700002634: 48 89 c1                 	movq	%rax, %rcx
133700002637: 48 89 fa                 	movq	%rdi, %rdx
13370000263a: 49 89 f0                 	movq	%rsi, %r8
13370000263d: 48 83 c4 28              	addq	$0x28, %rsp
133700002641: 5b                       	popq	%rbx
133700002642: 5f                       	popq	%rdi
133700002643: 5e                       	popq	%rsi
133700002644: 41 5c                    	popq	%r12
133700002646: 41 5d                    	popq	%r13
133700002648: 41 5e                    	popq	%r14
13370000264a: 41 5f                    	popq	%r15
13370000264c: 5d                       	popq	%rbp
13370000264d: 49 ff e1                 	jmpq	*%r9
133700002650: 4d 89 fd                 	movq	%r15, %r13
133700002653: 45 31 ff                 	xorl	%r15d, %r15d
133700002656: eb 0c                    	jmp	0x133700002664 <_ZN4core3fmt9Formatter3pad17hceca36268d3ff455E+0x3b4>
133700002658: 4d 89 fd                 	movq	%r15, %r13
13370000265b: 49 d1 ed                 	shrq	%r13
13370000265e: 49 ff c7                 	incq	%r15
133700002661: 49 d1 ef                 	shrq	%r15
133700002664: 48 8b 59 20              	movq	0x20(%rcx), %rbx
133700002668: 4c 8b 61 28              	movq	0x28(%rcx), %r12
13370000266c: 44 8b 71 30              	movl	0x30(%rcx), %r14d
133700002670: 49 ff c5                 	incq	%r13
133700002673: 66 66 66 66 2e 0f 1f 84 00 00 00 00 00   	nopw	%cs:(%rax,%rax)
133700002680: 48 89 d9                 	movq	%rbx, %rcx
133700002683: 49 ff cd                 	decq	%r13
133700002686: 74 10                    	je	0x133700002698 <_ZN4core3fmt9Formatter3pad17hceca36268d3ff455E+0x3e8>
133700002688: 44 89 f2                 	movl	%r14d, %edx
13370000268b: 41 ff 54 24 20           	callq	*0x20(%r12)
133700002690: 84 c0                    	testb	%al, %al
133700002692: 74 ec                    	je	0x133700002680 <_ZN4core3fmt9Formatter3pad17hceca36268d3ff455E+0x3d0>
133700002694: b0 01                    	movb	$0x1, %al
133700002696: eb 4f                    	jmp	0x1337000026e7 <_ZN4core3fmt9Formatter3pad17hceca36268d3ff455E+0x437>
133700002698: 48 89 fa                 	movq	%rdi, %rdx
13370000269b: 49 89 f0                 	movq	%rsi, %r8
13370000269e: 41 ff 54 24 18           	callq	*0x18(%r12)
1337000026a3: 89 c1                    	movl	%eax, %ecx
1337000026a5: b0 01                    	movb	$0x1, %al
1337000026a7: 84 c9                    	testb	%cl, %cl
1337000026a9: 75 3c                    	jne	0x1337000026e7 <_ZN4core3fmt9Formatter3pad17hceca36268d3ff455E+0x437>
1337000026ab: 4c 89 ff                 	movq	%r15, %rdi
1337000026ae: 48 f7 df                 	negq	%rdi
1337000026b1: 48 c7 c6 ff ff ff ff     	movq	$-0x1, %rsi
1337000026b8: 0f 1f 84 00 00 00 00 00  	nopl	(%rax,%rax)
1337000026c0: 48 8d 04 37              	leaq	(%rdi,%rsi), %rax
1337000026c4: 48 83 f8 ff              	cmpq	$-0x1, %rax
1337000026c8: 74 14                    	je	0x1337000026de <_ZN4core3fmt9Formatter3pad17hceca36268d3ff455E+0x42e>
1337000026ca: 48 89 d9                 	movq	%rbx, %rcx
1337000026cd: 44 89 f2                 	movl	%r14d, %edx
1337000026d0: 41 ff 54 24 20           	callq	*0x20(%r12)
1337000026d5: 48 ff c6                 	incq	%rsi
1337000026d8: 84 c0                    	testb	%al, %al
1337000026da: 74 e4                    	je	0x1337000026c0 <_ZN4core3fmt9Formatter3pad17hceca36268d3ff455E+0x410>
1337000026dc: eb 03                    	jmp	0x1337000026e1 <_ZN4core3fmt9Formatter3pad17hceca36268d3ff455E+0x431>
1337000026de: 4c 89 fe                 	movq	%r15, %rsi
1337000026e1: 4c 39 fe                 	cmpq	%r15, %rsi
1337000026e4: 0f 92 c0                 	setb	%al
1337000026e7: 48 83 c4 28              	addq	$0x28, %rsp
1337000026eb: 5b                       	popq	%rbx
1337000026ec: 5f                       	popq	%rdi
1337000026ed: 5e                       	popq	%rsi
1337000026ee: 41 5c                    	popq	%r12
1337000026f0: 41 5d                    	popq	%r13
1337000026f2: 41 5e                    	popq	%r14
1337000026f4: 41 5f                    	popq	%r15
1337000026f6: 5d                       	popq	%rbp
1337000026f7: c3                       	retq
1337000026f8: cc                       	int3
1337000026f9: cc                       	int3
1337000026fa: cc                       	int3
1337000026fb: cc                       	int3
1337000026fc: cc                       	int3
1337000026fd: cc                       	int3
1337000026fe: cc                       	int3
1337000026ff: cc                       	int3

0000133700002700 <_ZN40_$LT$str$u20$as$u20$core..fmt..Debug$GT$3fmt17hc68f43e48969c541E>:
133700002700: 55                       	pushq	%rbp
133700002701: 41 57                    	pushq	%r15
133700002703: 41 56                    	pushq	%r14
133700002705: 41 55                    	pushq	%r13
133700002707: 41 54                    	pushq	%r12
133700002709: 56                       	pushq	%rsi
13370000270a: 57                       	pushq	%rdi
13370000270b: 53                       	pushq	%rbx
13370000270c: 48 83 ec 78              	subq	$0x78, %rsp
133700002710: 48 8d 6c 24 70           	leaq	0x70(%rsp), %rbp
133700002715: 49 89 d5                 	movq	%rdx, %r13
133700002718: 48 89 cb                 	movq	%rcx, %rbx
13370000271b: 49 8b 70 20              	movq	0x20(%r8), %rsi
13370000271f: 4d 8b 78 28              	movq	0x28(%r8), %r15
133700002723: 49 8b 7f 20              	movq	0x20(%r15), %rdi
133700002727: 48 89 f1                 	movq	%rsi, %rcx
13370000272a: ba 22 00 00 00           	movl	$0x22, %edx
13370000272f: ff d7                    	callq	*%rdi
133700002731: 41 b6 01                 	movb	$0x1, %r14b
133700002734: 84 c0                    	testb	%al, %al
133700002736: 0f 85 e6 02 00 00        	jne	0x133700002a22 <_ZN40_$LT$str$u20$as$u20$core..fmt..Debug$GT$3fmt17hc68f43e48969c541E+0x322>
13370000273c: 4c 89 7d d0              	movq	%r15, -0x30(%rbp)
133700002740: 4d 85 ed                 	testq	%r13, %r13
133700002743: 0f 84 97 02 00 00        	je	0x1337000029e0 <_ZN40_$LT$str$u20$as$u20$core..fmt..Debug$GT$3fmt17hc68f43e48969c541E+0x2e0>
133700002749: 48 89 7d e0              	movq	%rdi, -0x20(%rbp)
13370000274d: 48 89 75 f0              	movq	%rsi, -0x10(%rbp)
133700002751: 4c 89 e8                 	movq	%r13, %rax
133700002754: 48 f7 d8                 	negq	%rax
133700002757: 48 89 45 c8              	movq	%rax, -0x38(%rbp)
13370000275b: 48 89 de                 	movq	%rbx, %rsi
13370000275e: 4c 89 e8                 	movq	%r13, %rax
133700002761: 45 31 ff                 	xorl	%r15d, %r15d
133700002764: 45 31 e4                 	xorl	%r12d, %r12d
133700002767: 4c 89 6d e8              	movq	%r13, -0x18(%rbp)
13370000276b: eb 16                    	jmp	0x133700002783 <_ZN40_$LT$str$u20$as$u20$core..fmt..Debug$GT$3fmt17hc68f43e48969c541E+0x83>
13370000276d: 0f 1f 00                 	nopl	(%rax)
133700002770: 4d 01 cc                 	addq	%r9, %r12
133700002773: 48 29 f7                 	subq	%rsi, %rdi
133700002776: 48 89 f8                 	movq	%rdi, %rax
133700002779: 4c 8b 6d e8              	movq	-0x18(%rbp), %r13
13370000277d: 0f 84 b3 02 00 00        	je	0x133700002a36 <_ZN40_$LT$str$u20$as$u20$core..fmt..Debug$GT$3fmt17hc68f43e48969c541E+0x336>
133700002783: 48 8d 3c 06              	leaq	(%rsi,%rax), %rdi
133700002787: 45 31 f6                 	xorl	%r14d, %r14d
13370000278a: 66 0f 1f 44 00 00        	nopw	(%rax,%rax)
133700002790: 42 0f b6 0c 36           	movzbl	(%rsi,%r14), %ecx
133700002795: 8d 51 81                 	leal	-0x7f(%rcx), %edx
133700002798: 80 fa a1                 	cmpb	$-0x5f, %dl
13370000279b: 72 23                    	jb	0x1337000027c0 <_ZN40_$LT$str$u20$as$u20$core..fmt..Debug$GT$3fmt17hc68f43e48969c541E+0xc0>
13370000279d: 83 f9 22                 	cmpl	$0x22, %ecx
1337000027a0: 74 1e                    	je	0x1337000027c0 <_ZN40_$LT$str$u20$as$u20$core..fmt..Debug$GT$3fmt17hc68f43e48969c541E+0xc0>
1337000027a2: 83 f9 5c                 	cmpl	$0x5c, %ecx
1337000027a5: 74 19                    	je	0x1337000027c0 <_ZN40_$LT$str$u20$as$u20$core..fmt..Debug$GT$3fmt17hc68f43e48969c541E+0xc0>
1337000027a7: 49 ff c6                 	incq	%r14
1337000027aa: 4c 39 f0                 	cmpq	%r14, %rax
1337000027ad: 75 e1                    	jne	0x133700002790 <_ZN40_$LT$str$u20$as$u20$core..fmt..Debug$GT$3fmt17hc68f43e48969c541E+0x90>
1337000027af: e9 ee 01 00 00           	jmp	0x1337000029a2 <_ZN40_$LT$str$u20$as$u20$core..fmt..Debug$GT$3fmt17hc68f43e48969c541E+0x2a2>
1337000027b4: 66 66 66 2e 0f 1f 84 00 00 00 00 00      	nopw	%cs:(%rax,%rax)
1337000027c0: 42 0f b6 0c 36           	movzbl	(%rsi,%r14), %ecx
1337000027c5: 44 0f b6 e9              	movzbl	%cl, %r13d
1337000027c9: 45 84 ed                 	testb	%r13b, %r13b
1337000027cc: 78 12                    	js	0x1337000027e0 <_ZN40_$LT$str$u20$as$u20$core..fmt..Debug$GT$3fmt17hc68f43e48969c541E+0xe0>
1337000027ce: 4c 01 f6                 	addq	%r14, %rsi
1337000027d1: 48 ff c6                 	incq	%rsi
1337000027d4: eb 7a                    	jmp	0x133700002850 <_ZN40_$LT$str$u20$as$u20$core..fmt..Debug$GT$3fmt17hc68f43e48969c541E+0x150>
1337000027d6: 66 2e 0f 1f 84 00 00 00 00 00    	nopw	%cs:(%rax,%rax)
1337000027e0: 44 89 e8                 	movl	%r13d, %eax
1337000027e3: 83 e0 1f                 	andl	$0x1f, %eax
1337000027e6: 42 0f b6 54 36 01        	movzbl	0x1(%rsi,%r14), %edx
1337000027ec: 83 e2 3f                 	andl	$0x3f, %edx
1337000027ef: 41 80 fd df              	cmpb	$-0x21, %r13b
1337000027f3: 76 39                    	jbe	0x13370000282e <_ZN40_$LT$str$u20$as$u20$core..fmt..Debug$GT$3fmt17hc68f43e48969c541E+0x12e>
1337000027f5: 46 0f b6 6c 36 02        	movzbl	0x2(%rsi,%r14), %r13d
1337000027fb: c1 e2 06                 	shll	$0x6, %edx
1337000027fe: 41 83 e5 3f              	andl	$0x3f, %r13d
133700002802: 41 09 d5                 	orl	%edx, %r13d
133700002805: 80 f9 f0                 	cmpb	$-0x10, %cl
133700002808: 72 35                    	jb	0x13370000283f <_ZN40_$LT$str$u20$as$u20$core..fmt..Debug$GT$3fmt17hc68f43e48969c541E+0x13f>
13370000280a: 42 0f b6 4c 36 03        	movzbl	0x3(%rsi,%r14), %ecx
133700002810: 4c 01 f6                 	addq	%r14, %rsi
133700002813: 48 83 c6 04              	addq	$0x4, %rsi
133700002817: 83 e0 07                 	andl	$0x7, %eax
13370000281a: c1 e0 12                 	shll	$0x12, %eax
13370000281d: 41 c1 e5 06              	shll	$0x6, %r13d
133700002821: 83 e1 3f                 	andl	$0x3f, %ecx
133700002824: 44 09 e9                 	orl	%r13d, %ecx
133700002827: 09 c1                    	orl	%eax, %ecx
133700002829: 41 89 cd                 	movl	%ecx, %r13d
13370000282c: eb 22                    	jmp	0x133700002850 <_ZN40_$LT$str$u20$as$u20$core..fmt..Debug$GT$3fmt17hc68f43e48969c541E+0x150>
13370000282e: 4c 01 f6                 	addq	%r14, %rsi
133700002831: 48 83 c6 02              	addq	$0x2, %rsi
133700002835: c1 e0 06                 	shll	$0x6, %eax
133700002838: 09 d0                    	orl	%edx, %eax
13370000283a: 41 89 c5                 	movl	%eax, %r13d
13370000283d: eb 11                    	jmp	0x133700002850 <_ZN40_$LT$str$u20$as$u20$core..fmt..Debug$GT$3fmt17hc68f43e48969c541E+0x150>
13370000283f: 4c 01 f6                 	addq	%r14, %rsi
133700002842: 48 83 c6 03              	addq	$0x3, %rsi
133700002846: c1 e0 0c                 	shll	$0xc, %eax
133700002849: 41 09 c5                 	orl	%eax, %r13d
13370000284c: 0f 1f 40 00              	nopl	(%rax)
133700002850: 4c 89 65 d8              	movq	%r12, -0x28(%rbp)
133700002854: 4d 01 f4                 	addq	%r14, %r12
133700002857: 48 8d 4d fc              	leaq	-0x4(%rbp), %rcx
13370000285b: 44 89 ea                 	movl	%r13d, %edx
13370000285e: 41 b8 01 00 01 00        	movl	$0x10001, %r8d          # imm = 0x10001
133700002864: e8 87 f0 ff ff           	callq	0x1337000018f0 <_ZN4core4char7methods22_$LT$impl$u20$char$GT$16escape_debug_ext17hf5faaa6c799cbaefE>
133700002869: 31 c0                    	xorl	%eax, %eax
13370000286b: 3a 45 fc                 	cmpb	-0x4(%rbp), %al
13370000286e: 0f 80 f2 00 00 00        	jo	0x133700002966 <_ZN40_$LT$str$u20$as$u20$core..fmt..Debug$GT$3fmt17hc68f43e48969c541E+0x266>
133700002874: 0f b6 45 07              	movzbl	0x7(%rbp), %eax
133700002878: 2a 45 06                 	subb	0x6(%rbp), %al
13370000287b: 3c 01                    	cmpb	$0x1, %al
13370000287d: 0f 84 e3 00 00 00        	je	0x133700002966 <_ZN40_$LT$str$u20$as$u20$core..fmt..Debug$GT$3fmt17hc68f43e48969c541E+0x266>
133700002883: 4d 39 e7                 	cmpq	%r12, %r15
133700002886: 4c 8b 45 d8              	movq	-0x28(%rbp), %r8
13370000288a: 0f 87 d5 01 00 00        	ja	0x133700002a65 <_ZN40_$LT$str$u20$as$u20$core..fmt..Debug$GT$3fmt17hc68f43e48969c541E+0x365>
133700002890: 4d 85 ff                 	testq	%r15, %r15
133700002893: 74 18                    	je	0x1337000028ad <_ZN40_$LT$str$u20$as$u20$core..fmt..Debug$GT$3fmt17hc68f43e48969c541E+0x1ad>
133700002895: 4c 3b 7d e8              	cmpq	-0x18(%rbp), %r15
133700002899: 73 0c                    	jae	0x1337000028a7 <_ZN40_$LT$str$u20$as$u20$core..fmt..Debug$GT$3fmt17hc68f43e48969c541E+0x1a7>
13370000289b: 42 80 3c 3b bf           	cmpb	$-0x41, (%rbx,%r15)
1337000028a0: 7f 0b                    	jg	0x1337000028ad <_ZN40_$LT$str$u20$as$u20$core..fmt..Debug$GT$3fmt17hc68f43e48969c541E+0x1ad>
1337000028a2: e9 be 01 00 00           	jmp	0x133700002a65 <_ZN40_$LT$str$u20$as$u20$core..fmt..Debug$GT$3fmt17hc68f43e48969c541E+0x365>
1337000028a7: 0f 85 b8 01 00 00        	jne	0x133700002a65 <_ZN40_$LT$str$u20$as$u20$core..fmt..Debug$GT$3fmt17hc68f43e48969c541E+0x365>
1337000028ad: 4d 85 e4                 	testq	%r12, %r12
1337000028b0: 74 23                    	je	0x1337000028d5 <_ZN40_$LT$str$u20$as$u20$core..fmt..Debug$GT$3fmt17hc68f43e48969c541E+0x1d5>
1337000028b2: 4c 3b 65 e8              	cmpq	-0x18(%rbp), %r12
1337000028b6: 73 10                    	jae	0x1337000028c8 <_ZN40_$LT$str$u20$as$u20$core..fmt..Debug$GT$3fmt17hc68f43e48969c541E+0x1c8>
1337000028b8: 4a 8d 04 03              	leaq	(%rbx,%r8), %rax
1337000028bc: 41 80 3c 06 bf           	cmpb	$-0x41, (%r14,%rax)
1337000028c1: 7f 12                    	jg	0x1337000028d5 <_ZN40_$LT$str$u20$as$u20$core..fmt..Debug$GT$3fmt17hc68f43e48969c541E+0x1d5>
1337000028c3: e9 9d 01 00 00           	jmp	0x133700002a65 <_ZN40_$LT$str$u20$as$u20$core..fmt..Debug$GT$3fmt17hc68f43e48969c541E+0x365>
1337000028c8: 4c 89 e0                 	movq	%r12, %rax
1337000028cb: 48 03 45 c8              	addq	-0x38(%rbp), %rax
1337000028cf: 0f 85 90 01 00 00        	jne	0x133700002a65 <_ZN40_$LT$str$u20$as$u20$core..fmt..Debug$GT$3fmt17hc68f43e48969c541E+0x365>
1337000028d5: 4d 29 f8                 	subq	%r15, %r8
1337000028d8: 4d 01 f0                 	addq	%r14, %r8
1337000028db: 48 89 5d c0              	movq	%rbx, -0x40(%rbp)
1337000028df: 49 01 df                 	addq	%rbx, %r15
1337000028e2: 48 8b 45 d0              	movq	-0x30(%rbp), %rax
1337000028e6: 48 8b 58 18              	movq	0x18(%rax), %rbx
1337000028ea: 48 8b 4d f0              	movq	-0x10(%rbp), %rcx
1337000028ee: 4c 89 fa                 	movq	%r15, %rdx
1337000028f1: ff d3                    	callq	*%rbx
1337000028f3: 84 c0                    	testb	%al, %al
1337000028f5: 0f 85 65 01 00 00        	jne	0x133700002a60 <_ZN40_$LT$str$u20$as$u20$core..fmt..Debug$GT$3fmt17hc68f43e48969c541E+0x360>
1337000028fb: 31 c0                    	xorl	%eax, %eax
1337000028fd: 3a 45 fc                 	cmpb	-0x4(%rbp), %al
133700002900: 71 0c                    	jno	0x13370000290e <_ZN40_$LT$str$u20$as$u20$core..fmt..Debug$GT$3fmt17hc68f43e48969c541E+0x20e>
133700002902: 8b 55 00                 	movl	(%rbp), %edx
133700002905: 48 8b 4d f0              	movq	-0x10(%rbp), %rcx
133700002909: ff 55 e0                 	callq	*-0x20(%rbp)
13370000290c: eb 1a                    	jmp	0x133700002928 <_ZN40_$LT$str$u20$as$u20$core..fmt..Debug$GT$3fmt17hc68f43e48969c541E+0x228>
13370000290e: 0f b6 45 06              	movzbl	0x6(%rbp), %eax
133700002912: 44 0f b6 45 07           	movzbl	0x7(%rbp), %r8d
133700002917: 49 29 c0                 	subq	%rax, %r8
13370000291a: 48 8d 14 28              	leaq	(%rax,%rbp), %rdx
13370000291e: 48 83 c2 fc              	addq	$-0x4, %rdx
133700002922: 48 8b 4d f0              	movq	-0x10(%rbp), %rcx
133700002926: ff d3                    	callq	*%rbx
133700002928: 84 c0                    	testb	%al, %al
13370000292a: 0f 85 30 01 00 00        	jne	0x133700002a60 <_ZN40_$LT$str$u20$as$u20$core..fmt..Debug$GT$3fmt17hc68f43e48969c541E+0x360>
133700002930: 41 bf 01 00 00 00        	movl	$0x1, %r15d
133700002936: 41 81 fd 80 00 00 00     	cmpl	$0x80, %r13d
13370000293d: 72 20                    	jb	0x13370000295f <_ZN40_$LT$str$u20$as$u20$core..fmt..Debug$GT$3fmt17hc68f43e48969c541E+0x25f>
13370000293f: 41 bf 02 00 00 00        	movl	$0x2, %r15d
133700002945: 41 81 fd 00 08 00 00     	cmpl	$0x800, %r13d           # imm = 0x800
13370000294c: 72 11                    	jb	0x13370000295f <_ZN40_$LT$str$u20$as$u20$core..fmt..Debug$GT$3fmt17hc68f43e48969c541E+0x25f>
13370000294e: 41 81 fd 00 00 01 00     	cmpl	$0x10000, %r13d         # imm = 0x10000
133700002955: 41 bf 04 00 00 00        	movl	$0x4, %r15d
13370000295b: 49 83 df 00              	sbbq	$0x0, %r15
13370000295f: 4d 01 e7                 	addq	%r12, %r15
133700002962: 48 8b 5d c0              	movq	-0x40(%rbp), %rbx
133700002966: 41 b9 01 00 00 00        	movl	$0x1, %r9d
13370000296c: 41 81 fd 80 00 00 00     	cmpl	$0x80, %r13d
133700002973: 0f 82 f7 fd ff ff        	jb	0x133700002770 <_ZN40_$LT$str$u20$as$u20$core..fmt..Debug$GT$3fmt17hc68f43e48969c541E+0x70>
133700002979: 41 b9 02 00 00 00        	movl	$0x2, %r9d
13370000297f: 41 81 fd 00 08 00 00     	cmpl	$0x800, %r13d           # imm = 0x800
133700002986: 0f 82 e4 fd ff ff        	jb	0x133700002770 <_ZN40_$LT$str$u20$as$u20$core..fmt..Debug$GT$3fmt17hc68f43e48969c541E+0x70>
13370000298c: 41 81 fd 00 00 01 00     	cmpl	$0x10000, %r13d         # imm = 0x10000
133700002993: 41 b9 04 00 00 00        	movl	$0x4, %r9d
133700002999: 49 83 d9 00              	sbbq	$0x0, %r9
13370000299d: e9 ce fd ff ff           	jmp	0x133700002770 <_ZN40_$LT$str$u20$as$u20$core..fmt..Debug$GT$3fmt17hc68f43e48969c541E+0x70>
1337000029a2: 4c 01 e0                 	addq	%r12, %rax
1337000029a5: 49 89 c1                 	movq	%rax, %r9
1337000029a8: 4d 39 cf                 	cmpq	%r9, %r15
1337000029ab: 0f 87 95 00 00 00        	ja	0x133700002a46 <_ZN40_$LT$str$u20$as$u20$core..fmt..Debug$GT$3fmt17hc68f43e48969c541E+0x346>
1337000029b1: 4d 85 ff                 	testq	%r15, %r15
1337000029b4: 48 8b 75 f0              	movq	-0x10(%rbp), %rsi
1337000029b8: 48 8b 7d e0              	movq	-0x20(%rbp), %rdi
1337000029bc: 41 b6 01                 	movb	$0x1, %r14b
1337000029bf: 74 27                    	je	0x1337000029e8 <_ZN40_$LT$str$u20$as$u20$core..fmt..Debug$GT$3fmt17hc68f43e48969c541E+0x2e8>
1337000029c1: 4d 39 ef                 	cmpq	%r13, %r15
1337000029c4: 73 2f                    	jae	0x1337000029f5 <_ZN40_$LT$str$u20$as$u20$core..fmt..Debug$GT$3fmt17hc68f43e48969c541E+0x2f5>
1337000029c6: 42 80 3c 3b bf           	cmpb	$-0x41, (%rbx,%r15)
1337000029cb: 7e 79                    	jle	0x133700002a46 <_ZN40_$LT$str$u20$as$u20$core..fmt..Debug$GT$3fmt17hc68f43e48969c541E+0x346>
1337000029cd: 4d 85 c9                 	testq	%r9, %r9
1337000029d0: 74 1e                    	je	0x1337000029f0 <_ZN40_$LT$str$u20$as$u20$core..fmt..Debug$GT$3fmt17hc68f43e48969c541E+0x2f0>
1337000029d2: 4d 39 e9                 	cmpq	%r13, %r9
1337000029d5: 73 22                    	jae	0x1337000029f9 <_ZN40_$LT$str$u20$as$u20$core..fmt..Debug$GT$3fmt17hc68f43e48969c541E+0x2f9>
1337000029d7: 42 80 3c 0b bf           	cmpb	$-0x41, (%rbx,%r9)
1337000029dc: 7f 1d                    	jg	0x1337000029fb <_ZN40_$LT$str$u20$as$u20$core..fmt..Debug$GT$3fmt17hc68f43e48969c541E+0x2fb>
1337000029de: eb 66                    	jmp	0x133700002a46 <_ZN40_$LT$str$u20$as$u20$core..fmt..Debug$GT$3fmt17hc68f43e48969c541E+0x346>
1337000029e0: 45 31 c9                 	xorl	%r9d, %r9d
1337000029e3: 45 31 ff                 	xorl	%r15d, %r15d
1337000029e6: eb 13                    	jmp	0x1337000029fb <_ZN40_$LT$str$u20$as$u20$core..fmt..Debug$GT$3fmt17hc68f43e48969c541E+0x2fb>
1337000029e8: 45 31 ff                 	xorl	%r15d, %r15d
1337000029eb: 4d 85 c9                 	testq	%r9, %r9
1337000029ee: 75 e2                    	jne	0x1337000029d2 <_ZN40_$LT$str$u20$as$u20$core..fmt..Debug$GT$3fmt17hc68f43e48969c541E+0x2d2>
1337000029f0: 45 31 c9                 	xorl	%r9d, %r9d
1337000029f3: eb 06                    	jmp	0x1337000029fb <_ZN40_$LT$str$u20$as$u20$core..fmt..Debug$GT$3fmt17hc68f43e48969c541E+0x2fb>
1337000029f5: 74 d6                    	je	0x1337000029cd <_ZN40_$LT$str$u20$as$u20$core..fmt..Debug$GT$3fmt17hc68f43e48969c541E+0x2cd>
1337000029f7: eb 4d                    	jmp	0x133700002a46 <_ZN40_$LT$str$u20$as$u20$core..fmt..Debug$GT$3fmt17hc68f43e48969c541E+0x346>
1337000029f9: 75 4b                    	jne	0x133700002a46 <_ZN40_$LT$str$u20$as$u20$core..fmt..Debug$GT$3fmt17hc68f43e48969c541E+0x346>
1337000029fb: 4d 29 f9                 	subq	%r15, %r9
1337000029fe: 4c 01 fb                 	addq	%r15, %rbx
133700002a01: 48 89 f1                 	movq	%rsi, %rcx
133700002a04: 48 89 da                 	movq	%rbx, %rdx
133700002a07: 4d 89 c8                 	movq	%r9, %r8
133700002a0a: 48 8b 45 d0              	movq	-0x30(%rbp), %rax
133700002a0e: ff 50 18                 	callq	*0x18(%rax)
133700002a11: 84 c0                    	testb	%al, %al
133700002a13: 75 0d                    	jne	0x133700002a22 <_ZN40_$LT$str$u20$as$u20$core..fmt..Debug$GT$3fmt17hc68f43e48969c541E+0x322>
133700002a15: 48 89 f1                 	movq	%rsi, %rcx
133700002a18: ba 22 00 00 00           	movl	$0x22, %edx
133700002a1d: ff d7                    	callq	*%rdi
133700002a1f: 41 89 c6                 	movl	%eax, %r14d
133700002a22: 44 89 f0                 	movl	%r14d, %eax
133700002a25: 48 83 c4 78              	addq	$0x78, %rsp
133700002a29: 5b                       	popq	%rbx
133700002a2a: 5f                       	popq	%rdi
133700002a2b: 5e                       	popq	%rsi
133700002a2c: 41 5c                    	popq	%r12
133700002a2e: 41 5d                    	popq	%r13
133700002a30: 41 5e                    	popq	%r14
133700002a32: 41 5f                    	popq	%r15
133700002a34: 5d                       	popq	%rbp
133700002a35: c3                       	retq
133700002a36: 4c 03 4d d8              	addq	-0x28(%rbp), %r9
133700002a3a: 4d 01 f1                 	addq	%r14, %r9
133700002a3d: 4d 39 cf                 	cmpq	%r9, %r15
133700002a40: 0f 86 6b ff ff ff        	jbe	0x1337000029b1 <_ZN40_$LT$str$u20$as$u20$core..fmt..Debug$GT$3fmt17hc68f43e48969c541E+0x2b1>
133700002a46: 48 8d 05 fb 28 00 00     	leaq	0x28fb(%rip), %rax      # 0x133700005348 <anon.f5e50f8ee13097b708e82fd3a822e157.332>
133700002a4d: 48 89 44 24 20           	movq	%rax, 0x20(%rsp)
133700002a52: 48 89 d9                 	movq	%rbx, %rcx
133700002a55: 4c 89 ea                 	movq	%r13, %rdx
133700002a58: 4d 89 f8                 	movq	%r15, %r8
133700002a5b: e8 00 16 00 00           	callq	0x133700004060 <_ZN4core3str16slice_error_fail17h1e5d268cd08b78cdE>
133700002a60: 41 b6 01                 	movb	$0x1, %r14b
133700002a63: eb bd                    	jmp	0x133700002a22 <_ZN40_$LT$str$u20$as$u20$core..fmt..Debug$GT$3fmt17hc68f43e48969c541E+0x322>
133700002a65: 48 8d 05 c4 28 00 00     	leaq	0x28c4(%rip), %rax      # 0x133700005330 <anon.f5e50f8ee13097b708e82fd3a822e157.331>
133700002a6c: 48 89 44 24 20           	movq	%rax, 0x20(%rsp)
133700002a71: 48 89 d9                 	movq	%rbx, %rcx
133700002a74: 48 8b 55 e8              	movq	-0x18(%rbp), %rdx
133700002a78: 4d 89 f8                 	movq	%r15, %r8
133700002a7b: 4d 89 e1                 	movq	%r12, %r9
133700002a7e: e8 dd 15 00 00           	callq	0x133700004060 <_ZN4core3str16slice_error_fail17h1e5d268cd08b78cdE>
133700002a83: cc                       	int3
133700002a84: cc                       	int3
133700002a85: cc                       	int3
133700002a86: cc                       	int3
133700002a87: cc                       	int3
133700002a88: cc                       	int3
133700002a89: cc                       	int3
133700002a8a: cc                       	int3
133700002a8b: cc                       	int3
133700002a8c: cc                       	int3
133700002a8d: cc                       	int3
133700002a8e: cc                       	int3
133700002a8f: cc                       	int3

0000133700002a90 <_ZN41_$LT$char$u20$as$u20$core..fmt..Debug$GT$3fmt17h363fa39fac16bcfeE>:
133700002a90: 55                       	pushq	%rbp
133700002a91: 41 56                    	pushq	%r14
133700002a93: 56                       	pushq	%rsi
133700002a94: 57                       	pushq	%rdi
133700002a95: 53                       	pushq	%rbx
133700002a96: 48 83 ec 30              	subq	$0x30, %rsp
133700002a9a: 48 8d 6c 24 30           	leaq	0x30(%rsp), %rbp
133700002a9f: 48 89 cf                 	movq	%rcx, %rdi
133700002aa2: 48 8b 72 20              	movq	0x20(%rdx), %rsi
133700002aa6: 4c 8b 72 28              	movq	0x28(%rdx), %r14
133700002aaa: 49 8b 5e 20              	movq	0x20(%r14), %rbx
133700002aae: 48 89 f1                 	movq	%rsi, %rcx
133700002ab1: ba 27 00 00 00           	movl	$0x27, %edx
133700002ab6: ff d3                    	callq	*%rbx
133700002ab8: 89 c1                    	movl	%eax, %ecx
133700002aba: b0 01                    	movb	$0x1, %al
133700002abc: 84 c9                    	testb	%cl, %cl
133700002abe: 75 51                    	jne	0x133700002b11 <_ZN41_$LT$char$u20$as$u20$core..fmt..Debug$GT$3fmt17h363fa39fac16bcfeE+0x81>
133700002ac0: 8b 17                    	movl	(%rdi), %edx
133700002ac2: 48 8d 4d f4              	leaq	-0xc(%rbp), %rcx
133700002ac6: 41 b8 01 01 00 00        	movl	$0x101, %r8d            # imm = 0x101
133700002acc: e8 1f ee ff ff           	callq	0x1337000018f0 <_ZN4core4char7methods22_$LT$impl$u20$char$GT$16escape_debug_ext17hf5faaa6c799cbaefE>
133700002ad1: 31 c0                    	xorl	%eax, %eax
133700002ad3: 3a 45 f4                 	cmpb	-0xc(%rbp), %al
133700002ad6: 71 18                    	jno	0x133700002af0 <_ZN41_$LT$char$u20$as$u20$core..fmt..Debug$GT$3fmt17h363fa39fac16bcfeE+0x60>
133700002ad8: 8b 55 f8                 	movl	-0x8(%rbp), %edx
133700002adb: 48 89 f1                 	movq	%rsi, %rcx
133700002ade: ff d3                    	callq	*%rbx
133700002ae0: 84 c0                    	testb	%al, %al
133700002ae2: 75 2b                    	jne	0x133700002b0f <_ZN41_$LT$char$u20$as$u20$core..fmt..Debug$GT$3fmt17h363fa39fac16bcfeE+0x7f>
133700002ae4: 48 89 f1                 	movq	%rsi, %rcx
133700002ae7: ba 27 00 00 00           	movl	$0x27, %edx
133700002aec: ff d3                    	callq	*%rbx
133700002aee: eb 21                    	jmp	0x133700002b11 <_ZN41_$LT$char$u20$as$u20$core..fmt..Debug$GT$3fmt17h363fa39fac16bcfeE+0x81>
133700002af0: 0f b6 45 fe              	movzbl	-0x2(%rbp), %eax
133700002af4: 44 0f b6 45 ff           	movzbl	-0x1(%rbp), %r8d
133700002af9: 49 29 c0                 	subq	%rax, %r8
133700002afc: 48 8d 14 28              	leaq	(%rax,%rbp), %rdx
133700002b00: 48 83 c2 f4              	addq	$-0xc, %rdx
133700002b04: 48 89 f1                 	movq	%rsi, %rcx
133700002b07: 41 ff 56 18              	callq	*0x18(%r14)
133700002b0b: 84 c0                    	testb	%al, %al
133700002b0d: 74 d5                    	je	0x133700002ae4 <_ZN41_$LT$char$u20$as$u20$core..fmt..Debug$GT$3fmt17h363fa39fac16bcfeE+0x54>
133700002b0f: b0 01                    	movb	$0x1, %al
133700002b11: 48 83 c4 30              	addq	$0x30, %rsp
133700002b15: 5b                       	popq	%rbx
133700002b16: 5f                       	popq	%rdi
133700002b17: 5e                       	popq	%rsi
133700002b18: 41 5e                    	popq	%r14
133700002b1a: 5d                       	popq	%rbp
133700002b1b: c3                       	retq
133700002b1c: cc                       	int3
133700002b1d: cc                       	int3
133700002b1e: cc                       	int3
133700002b1f: cc                       	int3

0000133700002b20 <_ZN4core3str5count14do_count_chars17haef711cfa931ccd4E>:
133700002b20: 55                       	pushq	%rbp
133700002b21: 41 57                    	pushq	%r15
133700002b23: 41 56                    	pushq	%r14
133700002b25: 41 54                    	pushq	%r12
133700002b27: 56                       	pushq	%rsi
133700002b28: 57                       	pushq	%rdi
133700002b29: 53                       	pushq	%rbx
133700002b2a: 48 83 ec 70              	subq	$0x70, %rsp
133700002b2e: 48 8d 6c 24 70           	leaq	0x70(%rsp), %rbp
133700002b33: 66 44 0f 7f 65 f0        	movdqa	%xmm12, -0x10(%rbp)
133700002b39: 66 44 0f 7f 5d e0        	movdqa	%xmm11, -0x20(%rbp)
133700002b3f: 66 44 0f 7f 55 d0        	movdqa	%xmm10, -0x30(%rbp)
133700002b45: 66 44 0f 7f 4d c0        	movdqa	%xmm9, -0x40(%rbp)
133700002b4b: 66 44 0f 7f 45 b0        	movdqa	%xmm8, -0x50(%rbp)
133700002b51: 66 0f 7f 7d a0           	movdqa	%xmm7, -0x60(%rbp)
133700002b56: 66 0f 7f 75 90           	movdqa	%xmm6, -0x70(%rbp)
133700002b5b: 4c 8d 51 07              	leaq	0x7(%rcx), %r10
133700002b5f: 49 83 e2 f8              	andq	$-0x8, %r10
133700002b63: 4d 89 d1                 	movq	%r10, %r9
133700002b66: 49 29 c9                 	subq	%rcx, %r9
133700002b69: 49 89 d0                 	movq	%rdx, %r8
133700002b6c: 4d 29 c8                 	subq	%r9, %r8
133700002b6f: 72 06                    	jb	0x133700002b77 <_ZN4core3str5count14do_count_chars17haef711cfa931ccd4E+0x57>
133700002b71: 49 83 f8 08              	cmpq	$0x8, %r8
133700002b75: 73 1c                    	jae	0x133700002b93 <_ZN4core3str5count14do_count_chars17haef711cfa931ccd4E+0x73>
133700002b77: 48 85 d2                 	testq	%rdx, %rdx
133700002b7a: 74 10                    	je	0x133700002b8c <_ZN4core3str5count14do_count_chars17haef711cfa931ccd4E+0x6c>
133700002b7c: 48 83 fa 04              	cmpq	$0x4, %rdx
133700002b80: 73 27                    	jae	0x133700002ba9 <_ZN4core3str5count14do_count_chars17haef711cfa931ccd4E+0x89>
133700002b82: 31 c0                    	xorl	%eax, %eax
133700002b84: 45 31 c0                 	xorl	%r8d, %r8d
133700002b87: e9 b4 00 00 00           	jmp	0x133700002c40 <_ZN4core3str5count14do_count_chars17haef711cfa931ccd4E+0x120>
133700002b8c: 31 c0                    	xorl	%eax, %eax
133700002b8e: e9 8d 05 00 00           	jmp	0x133700003120 <_ZN4core3str5count14do_count_chars17haef711cfa931ccd4E+0x600>
133700002b93: 44 89 c0                 	movl	%r8d, %eax
133700002b96: 83 e0 07                 	andl	$0x7, %eax
133700002b99: 49 39 ca                 	cmpq	%rcx, %r10
133700002b9c: 0f 85 ba 00 00 00        	jne	0x133700002c5c <_ZN4core3str5count14do_count_chars17haef711cfa931ccd4E+0x13c>
133700002ba2: 31 d2                    	xorl	%edx, %edx
133700002ba4: e9 64 01 00 00           	jmp	0x133700002d0d <_ZN4core3str5count14do_count_chars17haef711cfa931ccd4E+0x1ed>
133700002ba9: 49 89 d0                 	movq	%rdx, %r8
133700002bac: 49 83 e0 fc              	andq	$-0x4, %r8
133700002bb0: 66 0f ef c0              	pxor	%xmm0, %xmm0
133700002bb4: 31 c0                    	xorl	%eax, %eax
133700002bb6: 66 0f 6f 15 72 25 00 00  	movdqa	0x2572(%rip), %xmm2     # 0x133700005130 <__xmm@0000000000000000000000000000bfbf>
133700002bbe: 66 0f 6f 1d 7a 25 00 00  	movdqa	0x257a(%rip), %xmm3     # 0x133700005140 <__xmm@00000000000000010000000000000001>
133700002bc6: 66 0f ef c9              	pxor	%xmm1, %xmm1
133700002bca: 66 0f 1f 44 00 00        	nopw	(%rax,%rax)
133700002bd0: 44 0f b7 0c 01           	movzwl	(%rcx,%rax), %r9d
133700002bd5: 66 41 0f 6e e1           	movd	%r9d, %xmm4
133700002bda: 44 0f b7 4c 01 02        	movzwl	0x2(%rcx,%rax), %r9d
133700002be0: 66 41 0f 6e e9           	movd	%r9d, %xmm5
133700002be5: 66 0f 64 e2              	pcmpgtb	%xmm2, %xmm4
133700002be9: 66 0f 60 e4              	punpcklbw	%xmm4, %xmm4    # xmm4 = xmm4[0,0,1,1,2,2,3,3,4,4,5,5,6,6,7,7]
133700002bed: f2 0f 70 e4 d4           	pshuflw	$0xd4, %xmm4, %xmm4     # xmm4 = xmm4[0,1,1,3,4,5,6,7]
133700002bf2: 66 0f 70 e4 d4           	pshufd	$0xd4, %xmm4, %xmm4     # xmm4 = xmm4[0,1,1,3]
133700002bf7: 66 0f db e3              	pand	%xmm3, %xmm4
133700002bfb: 66 0f d4 c4              	paddq	%xmm4, %xmm0
133700002bff: 66 0f 64 ea              	pcmpgtb	%xmm2, %xmm5
133700002c03: 66 0f 60 ed              	punpcklbw	%xmm5, %xmm5    # xmm5 = xmm5[0,0,1,1,2,2,3,3,4,4,5,5,6,6,7,7]
133700002c07: f2 0f 70 e5 d4           	pshuflw	$0xd4, %xmm5, %xmm4     # xmm4 = xmm5[0,1,1,3,4,5,6,7]
133700002c0c: 66 0f 70 e4 d4           	pshufd	$0xd4, %xmm4, %xmm4     # xmm4 = xmm4[0,1,1,3]
133700002c11: 66 0f db e3              	pand	%xmm3, %xmm4
133700002c15: 66 0f d4 cc              	paddq	%xmm4, %xmm1
133700002c19: 48 83 c0 04              	addq	$0x4, %rax
133700002c1d: 49 39 c0                 	cmpq	%rax, %r8
133700002c20: 75 ae                    	jne	0x133700002bd0 <_ZN4core3str5count14do_count_chars17haef711cfa931ccd4E+0xb0>
133700002c22: 66 0f d4 c8              	paddq	%xmm0, %xmm1
133700002c26: 66 0f 70 c1 ee           	pshufd	$0xee, %xmm1, %xmm0     # xmm0 = xmm1[2,3,2,3]
133700002c2b: 66 0f d4 c1              	paddq	%xmm1, %xmm0
133700002c2f: 66 48 0f 7e c0           	movq	%xmm0, %rax
133700002c34: 49 39 d0                 	cmpq	%rdx, %r8
133700002c37: 0f 84 e3 04 00 00        	je	0x133700003120 <_ZN4core3str5count14do_count_chars17haef711cfa931ccd4E+0x600>
133700002c3d: 0f 1f 00                 	nopl	(%rax)
133700002c40: 45 31 c9                 	xorl	%r9d, %r9d
133700002c43: 42 80 3c 01 c0           	cmpb	$-0x40, (%rcx,%r8)
133700002c48: 41 0f 9d c1              	setge	%r9b
133700002c4c: 4c 01 c8                 	addq	%r9, %rax
133700002c4f: 49 ff c0                 	incq	%r8
133700002c52: 4c 39 c2                 	cmpq	%r8, %rdx
133700002c55: 75 e9                    	jne	0x133700002c40 <_ZN4core3str5count14do_count_chars17haef711cfa931ccd4E+0x120>
133700002c57: e9 c4 04 00 00           	jmp	0x133700003120 <_ZN4core3str5count14do_count_chars17haef711cfa931ccd4E+0x600>
133700002c5c: 49 83 f9 04              	cmpq	$0x4, %r9
133700002c60: 73 0a                    	jae	0x133700002c6c <_ZN4core3str5count14do_count_chars17haef711cfa931ccd4E+0x14c>
133700002c62: 31 d2                    	xorl	%edx, %edx
133700002c64: 45 31 d2                 	xorl	%r10d, %r10d
133700002c67: e9 8a 00 00 00           	jmp	0x133700002cf6 <_ZN4core3str5count14do_count_chars17haef711cfa931ccd4E+0x1d6>
133700002c6c: 45 89 ca                 	movl	%r9d, %r10d
133700002c6f: 41 83 e2 04              	andl	$0x4, %r10d
133700002c73: 66 0f ef c0              	pxor	%xmm0, %xmm0
133700002c77: 31 d2                    	xorl	%edx, %edx
133700002c79: 66 0f 6f 15 af 24 00 00  	movdqa	0x24af(%rip), %xmm2     # 0x133700005130 <__xmm@0000000000000000000000000000bfbf>
133700002c81: 66 0f 6f 1d b7 24 00 00  	movdqa	0x24b7(%rip), %xmm3     # 0x133700005140 <__xmm@00000000000000010000000000000001>
133700002c89: 66 0f ef c9              	pxor	%xmm1, %xmm1
133700002c8d: 0f 1f 00                 	nopl	(%rax)
133700002c90: 44 0f b7 1c 11           	movzwl	(%rcx,%rdx), %r11d
133700002c95: 66 41 0f 6e e3           	movd	%r11d, %xmm4
133700002c9a: 44 0f b7 5c 11 02        	movzwl	0x2(%rcx,%rdx), %r11d
133700002ca0: 66 41 0f 6e eb           	movd	%r11d, %xmm5
133700002ca5: 66 0f 64 e2              	pcmpgtb	%xmm2, %xmm4
133700002ca9: 66 0f 60 e4              	punpcklbw	%xmm4, %xmm4    # xmm4 = xmm4[0,0,1,1,2,2,3,3,4,4,5,5,6,6,7,7]
133700002cad: f2 0f 70 e4 d4           	pshuflw	$0xd4, %xmm4, %xmm4     # xmm4 = xmm4[0,1,1,3,4,5,6,7]
133700002cb2: 66 0f 70 e4 d4           	pshufd	$0xd4, %xmm4, %xmm4     # xmm4 = xmm4[0,1,1,3]
133700002cb7: 66 0f db e3              	pand	%xmm3, %xmm4
133700002cbb: 66 0f d4 c4              	paddq	%xmm4, %xmm0
133700002cbf: 66 0f 64 ea              	pcmpgtb	%xmm2, %xmm5
133700002cc3: 66 0f 60 ed              	punpcklbw	%xmm5, %xmm5    # xmm5 = xmm5[0,0,1,1,2,2,3,3,4,4,5,5,6,6,7,7]
133700002cc7: f2 0f 70 e5 d4           	pshuflw	$0xd4, %xmm5, %xmm4     # xmm4 = xmm5[0,1,1,3,4,5,6,7]
133700002ccc: 66 0f 70 e4 d4           	pshufd	$0xd4, %xmm4, %xmm4     # xmm4 = xmm4[0,1,1,3]
133700002cd1: 66 0f db e3              	pand	%xmm3, %xmm4
133700002cd5: 66 0f d4 cc              	paddq	%xmm4, %xmm1
133700002cd9: 48 83 c2 04              	addq	$0x4, %rdx
133700002cdd: 49 39 d2                 	cmpq	%rdx, %r10
133700002ce0: 75 ae                    	jne	0x133700002c90 <_ZN4core3str5count14do_count_chars17haef711cfa931ccd4E+0x170>
133700002ce2: 66 0f d4 c8              	paddq	%xmm0, %xmm1
133700002ce6: 66 0f 70 c1 ee           	pshufd	$0xee, %xmm1, %xmm0     # xmm0 = xmm1[2,3,2,3]
133700002ceb: 66 0f d4 c1              	paddq	%xmm1, %xmm0
133700002cef: 66 48 0f 7e c2           	movq	%xmm0, %rdx
133700002cf4: eb 12                    	jmp	0x133700002d08 <_ZN4core3str5count14do_count_chars17haef711cfa931ccd4E+0x1e8>
133700002cf6: 45 31 db                 	xorl	%r11d, %r11d
133700002cf9: 42 80 3c 11 c0           	cmpb	$-0x40, (%rcx,%r10)
133700002cfe: 41 0f 9d c3              	setge	%r11b
133700002d02: 4c 01 da                 	addq	%r11, %rdx
133700002d05: 49 ff c2                 	incq	%r10
133700002d08: 4d 39 d1                 	cmpq	%r10, %r9
133700002d0b: 75 e9                    	jne	0x133700002cf6 <_ZN4core3str5count14do_count_chars17haef711cfa931ccd4E+0x1d6>
133700002d0d: 4c 01 c9                 	addq	%r9, %rcx
133700002d10: 48 85 c0                 	testq	%rax, %rax
133700002d13: 0f 84 90 00 00 00        	je	0x133700002da9 <_ZN4core3str5count14do_count_chars17haef711cfa931ccd4E+0x289>
133700002d19: 4d 89 c1                 	movq	%r8, %r9
133700002d1c: 49 83 e1 f8              	andq	$-0x8, %r9
133700002d20: 31 ff                    	xorl	%edi, %edi
133700002d22: 42 80 3c 09 c0           	cmpb	$-0x40, (%rcx,%r9)
133700002d27: 40 0f 9d c7              	setge	%dil
133700002d2b: 83 f8 01                 	cmpl	$0x1, %eax
133700002d2e: 74 7b                    	je	0x133700002dab <_ZN4core3str5count14do_count_chars17haef711cfa931ccd4E+0x28b>
133700002d30: 45 31 d2                 	xorl	%r10d, %r10d
133700002d33: 42 80 7c 09 01 c0        	cmpb	$-0x40, 0x1(%rcx,%r9)
133700002d39: 41 0f 9d c2              	setge	%r10b
133700002d3d: 4c 01 d7                 	addq	%r10, %rdi
133700002d40: 83 f8 02                 	cmpl	$0x2, %eax
133700002d43: 74 66                    	je	0x133700002dab <_ZN4core3str5count14do_count_chars17haef711cfa931ccd4E+0x28b>
133700002d45: 45 31 d2                 	xorl	%r10d, %r10d
133700002d48: 42 80 7c 09 02 c0        	cmpb	$-0x40, 0x2(%rcx,%r9)
133700002d4e: 41 0f 9d c2              	setge	%r10b
133700002d52: 4c 01 d7                 	addq	%r10, %rdi
133700002d55: 83 f8 03                 	cmpl	$0x3, %eax
133700002d58: 74 51                    	je	0x133700002dab <_ZN4core3str5count14do_count_chars17haef711cfa931ccd4E+0x28b>
133700002d5a: 45 31 d2                 	xorl	%r10d, %r10d
133700002d5d: 42 80 7c 09 03 c0        	cmpb	$-0x40, 0x3(%rcx,%r9)
133700002d63: 41 0f 9d c2              	setge	%r10b
133700002d67: 4c 01 d7                 	addq	%r10, %rdi
133700002d6a: 83 f8 04                 	cmpl	$0x4, %eax
133700002d6d: 74 3c                    	je	0x133700002dab <_ZN4core3str5count14do_count_chars17haef711cfa931ccd4E+0x28b>
133700002d6f: 45 31 d2                 	xorl	%r10d, %r10d
133700002d72: 42 80 7c 09 04 c0        	cmpb	$-0x40, 0x4(%rcx,%r9)
133700002d78: 41 0f 9d c2              	setge	%r10b
133700002d7c: 4c 01 d7                 	addq	%r10, %rdi
133700002d7f: 83 f8 05                 	cmpl	$0x5, %eax
133700002d82: 74 27                    	je	0x133700002dab <_ZN4core3str5count14do_count_chars17haef711cfa931ccd4E+0x28b>
133700002d84: 45 31 d2                 	xorl	%r10d, %r10d
133700002d87: 42 80 7c 09 05 c0        	cmpb	$-0x40, 0x5(%rcx,%r9)
133700002d8d: 41 0f 9d c2              	setge	%r10b
133700002d91: 4c 01 d7                 	addq	%r10, %rdi
133700002d94: 83 f8 06                 	cmpl	$0x6, %eax
133700002d97: 74 12                    	je	0x133700002dab <_ZN4core3str5count14do_count_chars17haef711cfa931ccd4E+0x28b>
133700002d99: 31 c0                    	xorl	%eax, %eax
133700002d9b: 42 80 7c 09 06 c0        	cmpb	$-0x40, 0x6(%rcx,%r9)
133700002da1: 0f 9d c0                 	setge	%al
133700002da4: 48 01 c7                 	addq	%rax, %rdi
133700002da7: eb 02                    	jmp	0x133700002dab <_ZN4core3str5count14do_count_chars17haef711cfa931ccd4E+0x28b>
133700002da9: 31 ff                    	xorl	%edi, %edi
133700002dab: 48 01 d7                 	addq	%rdx, %rdi
133700002dae: 49 c1 e8 03              	shrq	$0x3, %r8
133700002db2: 49 b9 ff 00 ff 00 ff 00 ff 00    	movabsq	$0xff00ff00ff00ff, %r9 # imm = 0xFF00FF00FF00FF
133700002dbc: 48 ba 01 00 01 00 01 00 01 00    	movabsq	$0x1000100010001, %rdx # imm = 0x1000100010001
133700002dc6: 48 be ff ff ff ff ff ff ff 07    	movabsq	$0x7ffffffffffffff, %rsi # imm = 0x7FFFFFFFFFFFFFF
133700002dd0: 66 0f 76 c0              	pcmpeqd	%xmm0, %xmm0
133700002dd4: 66 0f 6f 0d 74 23 00 00  	movdqa	0x2374(%rip), %xmm1     # 0x133700005150 <__xmm@01010101010101010101010101010101>
133700002ddc: eb 38                    	jmp	0x133700002e16 <_ZN4core3str5count14do_count_chars17haef711cfa931ccd4E+0x2f6>
133700002dde: 66 90                    	nop
133700002de0: 31 ff                    	xorl	%edi, %edi
133700002de2: 44 89 d9                 	movl	%r11d, %ecx
133700002de5: 49 8d 0c ca              	leaq	(%r10,%rcx,8), %rcx
133700002de9: 4d 29 d8                 	subq	%r11, %r8
133700002dec: 44 89 db                 	movl	%r11d, %ebx
133700002def: 83 e3 03                 	andl	$0x3, %ebx
133700002df2: 49 89 fe                 	movq	%rdi, %r14
133700002df5: 4d 21 ce                 	andq	%r9, %r14
133700002df8: 48 c1 ef 08              	shrq	$0x8, %rdi
133700002dfc: 4c 21 cf                 	andq	%r9, %rdi
133700002dff: 4c 01 f7                 	addq	%r14, %rdi
133700002e02: 48 0f af fa              	imulq	%rdx, %rdi
133700002e06: 48 c1 ef 30              	shrq	$0x30, %rdi
133700002e0a: 48 01 c7                 	addq	%rax, %rdi
133700002e0d: 48 85 db                 	testq	%rbx, %rbx
133700002e10: 0f 85 7a 02 00 00        	jne	0x133700003090 <_ZN4core3str5count14do_count_chars17haef711cfa931ccd4E+0x570>
133700002e16: 48 89 f8                 	movq	%rdi, %rax
133700002e19: 4d 85 c0                 	testq	%r8, %r8
133700002e1c: 0f 84 fe 02 00 00        	je	0x133700003120 <_ZN4core3str5count14do_count_chars17haef711cfa931ccd4E+0x600>
133700002e22: 49 89 ca                 	movq	%rcx, %r10
133700002e25: 49 81 f8 c0 00 00 00     	cmpq	$0xc0, %r8
133700002e2c: 41 bb c0 00 00 00        	movl	$0xc0, %r11d
133700002e32: 4d 0f 42 d8              	cmovbq	%r8, %r11
133700002e36: 49 83 f8 04              	cmpq	$0x4, %r8
133700002e3a: 72 a4                    	jb	0x133700002de0 <_ZN4core3str5count14do_count_chars17haef711cfa931ccd4E+0x2c0>
133700002e3c: 44 89 d9                 	movl	%r11d, %ecx
133700002e3f: c1 e9 02                 	shrl	$0x2, %ecx
133700002e42: 4c 8d 71 ff              	leaq	-0x1(%rcx), %r14
133700002e46: 49 21 f6                 	andq	%rsi, %r14
133700002e49: 49 83 fe 03              	cmpq	$0x3, %r14
133700002e4d: 73 11                    	jae	0x133700002e60 <_ZN4core3str5count14do_count_chars17haef711cfa931ccd4E+0x340>
133700002e4f: 31 ff                    	xorl	%edi, %edi
133700002e51: 4c 89 d3                 	movq	%r10, %rbx
133700002e54: e9 cc 01 00 00           	jmp	0x133700003025 <_ZN4core3str5count14do_count_chars17haef711cfa931ccd4E+0x505>
133700002e59: 0f 1f 80 00 00 00 00     	nopl	(%rax)
133700002e60: 49 ff c6                 	incq	%r14
133700002e63: 4d 89 f7                 	movq	%r14, %r15
133700002e66: 49 83 e7 fc              	andq	$-0x4, %r15
133700002e6a: 4c 89 fb                 	movq	%r15, %rbx
133700002e6d: 48 c1 e3 05              	shlq	$0x5, %rbx
133700002e71: 4c 01 d3                 	addq	%r10, %rbx
133700002e74: 49 8d 7a 40              	leaq	0x40(%r10), %rdi
133700002e78: 66 0f ef e4              	pxor	%xmm4, %xmm4
133700002e7c: 4d 89 fc                 	movq	%r15, %r12
133700002e7f: 66 0f ef ed              	pxor	%xmm5, %xmm5
133700002e83: 66 66 66 66 2e 0f 1f 84 00 00 00 00 00   	nopw	%cs:(%rax,%rax)
133700002e90: f3 0f 6f 57 c0           	movdqu	-0x40(%rdi), %xmm2
133700002e95: f3 0f 6f 77 e0           	movdqu	-0x20(%rdi), %xmm6
133700002e9a: 66 0f 6f da              	movdqa	%xmm2, %xmm3
133700002e9e: 66 0f 6c de              	punpcklqdq	%xmm6, %xmm3    # xmm3 = xmm3[0],xmm6[0]
133700002ea2: 66 0f 6f fb              	movdqa	%xmm3, %xmm7
133700002ea6: 66 0f ef f8              	pxor	%xmm0, %xmm7
133700002eaa: 66 0f 73 d7 07           	psrlq	$0x7, %xmm7
133700002eaf: 66 0f 73 d3 06           	psrlq	$0x6, %xmm3
133700002eb4: 66 0f eb df              	por	%xmm7, %xmm3
133700002eb8: 66 0f db d9              	pand	%xmm1, %xmm3
133700002ebc: 66 0f d4 dc              	paddq	%xmm4, %xmm3
133700002ec0: f3 0f 6f 67 d0           	movdqu	-0x30(%rdi), %xmm4
133700002ec5: f3 44 0f 6f 57 f0        	movdqu	-0x10(%rdi), %xmm10
133700002ecb: f3 44 0f 6f 5f 30        	movdqu	0x30(%rdi), %xmm11
133700002ed1: f3 0f 6f 7f 20           	movdqu	0x20(%rdi), %xmm7
133700002ed6: f3 44 0f 6f 0f           	movdqu	(%rdi), %xmm9
133700002edb: 66 45 0f 6f c1           	movdqa	%xmm9, %xmm8
133700002ee0: 66 44 0f 6c c7           	punpcklqdq	%xmm7, %xmm8    # xmm8 = xmm8[0],xmm7[0]
133700002ee5: 66 45 0f 6f e0           	movdqa	%xmm8, %xmm12
133700002eea: 66 44 0f ef e0           	pxor	%xmm0, %xmm12
133700002eef: 66 41 0f 73 d4 07        	psrlq	$0x7, %xmm12
133700002ef5: 66 41 0f 73 d0 06        	psrlq	$0x6, %xmm8
133700002efb: 66 45 0f eb c4           	por	%xmm12, %xmm8
133700002f00: 66 44 0f db c1           	pand	%xmm1, %xmm8
133700002f05: 66 44 0f d4 c5           	paddq	%xmm5, %xmm8
133700002f0a: f3 0f 6f 6f 10           	movdqu	0x10(%rdi), %xmm5
133700002f0f: 66 0f 6d d6              	punpckhqdq	%xmm6, %xmm2    # xmm2 = xmm2[1],xmm6[1]
133700002f13: 66 44 0f 6d cf           	punpckhqdq	%xmm7, %xmm9    # xmm9 = xmm9[1],xmm7[1]
133700002f18: 66 0f 6f fc              	movdqa	%xmm4, %xmm7
133700002f1c: 66 41 0f 6c fa           	punpcklqdq	%xmm10, %xmm7   # xmm7 = xmm7[0],xmm10[0]
133700002f21: 66 0f 6f f5              	movdqa	%xmm5, %xmm6
133700002f25: 66 41 0f 6c f3           	punpcklqdq	%xmm11, %xmm6   # xmm6 = xmm6[0],xmm11[0]
133700002f2a: 66 41 0f 6d e2           	punpckhqdq	%xmm10, %xmm4   # xmm4 = xmm4[1],xmm10[1]
133700002f2f: 66 41 0f 6d eb           	punpckhqdq	%xmm11, %xmm5   # xmm5 = xmm5[1],xmm11[1]
133700002f34: 66 44 0f 6f d2           	movdqa	%xmm2, %xmm10
133700002f39: 66 44 0f ef d0           	pxor	%xmm0, %xmm10
133700002f3e: 66 45 0f 6f d9           	movdqa	%xmm9, %xmm11
133700002f43: 66 44 0f ef d8           	pxor	%xmm0, %xmm11
133700002f48: 66 41 0f 73 d2 07        	psrlq	$0x7, %xmm10
133700002f4e: 66 41 0f 73 d3 07        	psrlq	$0x7, %xmm11
133700002f54: 66 0f 73 d2 06           	psrlq	$0x6, %xmm2
133700002f59: 66 41 0f eb d2           	por	%xmm10, %xmm2
133700002f5e: 66 41 0f 73 d1 06        	psrlq	$0x6, %xmm9
133700002f64: 66 45 0f eb cb           	por	%xmm11, %xmm9
133700002f69: 66 0f db d1              	pand	%xmm1, %xmm2
133700002f6d: 66 44 0f db c9           	pand	%xmm1, %xmm9
133700002f72: 66 44 0f 6f d7           	movdqa	%xmm7, %xmm10
133700002f77: 66 44 0f ef d0           	pxor	%xmm0, %xmm10
133700002f7c: 66 44 0f 6f de           	movdqa	%xmm6, %xmm11
133700002f81: 66 44 0f ef d8           	pxor	%xmm0, %xmm11
133700002f86: 66 41 0f 73 d2 07        	psrlq	$0x7, %xmm10
133700002f8c: 66 41 0f 73 d3 07        	psrlq	$0x7, %xmm11
133700002f92: 66 0f 73 d7 06           	psrlq	$0x6, %xmm7
133700002f97: 66 41 0f eb fa           	por	%xmm10, %xmm7
133700002f9c: 66 0f 73 d6 06           	psrlq	$0x6, %xmm6
133700002fa1: 66 41 0f eb f3           	por	%xmm11, %xmm6
133700002fa6: 66 0f db f9              	pand	%xmm1, %xmm7
133700002faa: 66 0f d4 fa              	paddq	%xmm2, %xmm7
133700002fae: 66 0f d4 fb              	paddq	%xmm3, %xmm7
133700002fb2: 66 0f db f1              	pand	%xmm1, %xmm6
133700002fb6: 66 41 0f d4 f1           	paddq	%xmm9, %xmm6
133700002fbb: 66 41 0f d4 f0           	paddq	%xmm8, %xmm6
133700002fc0: 66 0f 6f d4              	movdqa	%xmm4, %xmm2
133700002fc4: 66 0f ef d0              	pxor	%xmm0, %xmm2
133700002fc8: 66 0f 6f dd              	movdqa	%xmm5, %xmm3
133700002fcc: 66 0f ef d8              	pxor	%xmm0, %xmm3
133700002fd0: 66 0f 73 d2 07           	psrlq	$0x7, %xmm2
133700002fd5: 66 0f 73 d3 07           	psrlq	$0x7, %xmm3
133700002fda: 66 0f 73 d4 06           	psrlq	$0x6, %xmm4
133700002fdf: 66 0f eb e2              	por	%xmm2, %xmm4
133700002fe3: 66 0f 73 d5 06           	psrlq	$0x6, %xmm5
133700002fe8: 66 0f eb eb              	por	%xmm3, %xmm5
133700002fec: 66 0f db e1              	pand	%xmm1, %xmm4
133700002ff0: 66 0f d4 e7              	paddq	%xmm7, %xmm4
133700002ff4: 66 0f db e9              	pand	%xmm1, %xmm5
133700002ff8: 66 0f d4 ee              	paddq	%xmm6, %xmm5
133700002ffc: 48 83 ef 80              	subq	$-0x80, %rdi
133700003000: 49 83 c4 fc              	addq	$-0x4, %r12
133700003004: 0f 85 86 fe ff ff        	jne	0x133700002e90 <_ZN4core3str5count14do_count_chars17haef711cfa931ccd4E+0x370>
13370000300a: 66 0f d4 ec              	paddq	%xmm4, %xmm5
13370000300e: 66 0f 70 d5 ee           	pshufd	$0xee, %xmm5, %xmm2     # xmm2 = xmm5[2,3,2,3]
133700003013: 66 0f d4 d5              	paddq	%xmm5, %xmm2
133700003017: 66 48 0f 7e d7           	movq	%xmm2, %rdi
13370000301c: 4d 39 fe                 	cmpq	%r15, %r14
13370000301f: 0f 84 bd fd ff ff        	je	0x133700002de2 <_ZN4core3str5count14do_count_chars17haef711cfa931ccd4E+0x2c2>
133700003025: c1 e1 05                 	shll	$0x5, %ecx
133700003028: 4c 01 d1                 	addq	%r10, %rcx
13370000302b: 0f 1f 44 00 00           	nopl	(%rax,%rax)
133700003030: f3 0f 6f 13              	movdqu	(%rbx), %xmm2
133700003034: f3 0f 6f 5b 10           	movdqu	0x10(%rbx), %xmm3
133700003039: 66 0f 6f e2              	movdqa	%xmm2, %xmm4
13370000303d: 66 0f ef e0              	pxor	%xmm0, %xmm4
133700003041: 66 0f 6f eb              	movdqa	%xmm3, %xmm5
133700003045: 66 0f ef e8              	pxor	%xmm0, %xmm5
133700003049: 66 0f 73 d5 07           	psrlq	$0x7, %xmm5
13370000304e: 66 0f 73 d4 07           	psrlq	$0x7, %xmm4
133700003053: 66 0f 73 d3 06           	psrlq	$0x6, %xmm3
133700003058: 66 0f eb dd              	por	%xmm5, %xmm3
13370000305c: 66 0f 73 d2 06           	psrlq	$0x6, %xmm2
133700003061: 66 0f eb d4              	por	%xmm4, %xmm2
133700003065: 66 0f db d9              	pand	%xmm1, %xmm3
133700003069: 66 0f db d1              	pand	%xmm1, %xmm2
13370000306d: 66 0f d4 d3              	paddq	%xmm3, %xmm2
133700003071: 66 0f 70 da ee           	pshufd	$0xee, %xmm2, %xmm3     # xmm3 = xmm2[2,3,2,3]
133700003076: 66 0f d4 da              	paddq	%xmm2, %xmm3
13370000307a: 66 49 0f 7e de           	movq	%xmm3, %r14
13370000307f: 4c 01 f7                 	addq	%r14, %rdi
133700003082: 48 83 c3 20              	addq	$0x20, %rbx
133700003086: 48 39 cb                 	cmpq	%rcx, %rbx
133700003089: 75 a5                    	jne	0x133700003030 <_ZN4core3str5count14do_count_chars17haef711cfa931ccd4E+0x510>
13370000308b: e9 52 fd ff ff           	jmp	0x133700002de2 <_ZN4core3str5count14do_count_chars17haef711cfa931ccd4E+0x2c2>
133700003090: 41 81 e3 fc 00 00 00     	andl	$0xfc, %r11d
133700003097: 44 89 d8                 	movl	%r11d, %eax
13370000309a: 49 8b 0c c2              	movq	(%r10,%rax,8), %rcx
13370000309e: 48 89 c8                 	movq	%rcx, %rax
1337000030a1: 48 f7 d0                 	notq	%rax
1337000030a4: 48 c1 e8 07              	shrq	$0x7, %rax
1337000030a8: 48 c1 e9 06              	shrq	$0x6, %rcx
1337000030ac: 48 09 c1                 	orq	%rax, %rcx
1337000030af: 48 b8 01 01 01 01 01 01 01 01    	movabsq	$0x101010101010101, %rax # imm = 0x101010101010101
1337000030b9: 48 21 c1                 	andq	%rax, %rcx
1337000030bc: 83 fb 01                 	cmpl	$0x1, %ebx
1337000030bf: 74 3d                    	je	0x1337000030fe <_ZN4core3str5count14do_count_chars17haef711cfa931ccd4E+0x5de>
1337000030c1: 4f 8b 44 da 08           	movq	0x8(%r10,%r11,8), %r8
1337000030c6: 4c 89 c6                 	movq	%r8, %rsi
1337000030c9: 48 f7 d6                 	notq	%rsi
1337000030cc: 48 c1 ee 07              	shrq	$0x7, %rsi
1337000030d0: 49 c1 e8 06              	shrq	$0x6, %r8
1337000030d4: 49 09 f0                 	orq	%rsi, %r8
1337000030d7: 49 21 c0                 	andq	%rax, %r8
1337000030da: 4c 01 c1                 	addq	%r8, %rcx
1337000030dd: 83 fb 02                 	cmpl	$0x2, %ebx
1337000030e0: 74 1c                    	je	0x1337000030fe <_ZN4core3str5count14do_count_chars17haef711cfa931ccd4E+0x5de>
1337000030e2: 4f 8b 44 da 10           	movq	0x10(%r10,%r11,8), %r8
1337000030e7: 4d 89 c2                 	movq	%r8, %r10
1337000030ea: 49 f7 d2                 	notq	%r10
1337000030ed: 49 c1 ea 07              	shrq	$0x7, %r10
1337000030f1: 49 c1 e8 06              	shrq	$0x6, %r8
1337000030f5: 4d 09 d0                 	orq	%r10, %r8
1337000030f8: 49 21 c0                 	andq	%rax, %r8
1337000030fb: 4c 01 c1                 	addq	%r8, %rcx
1337000030fe: 49 21 c9                 	andq	%rcx, %r9
133700003101: 48 c1 e9 08              	shrq	$0x8, %rcx
133700003105: 48 b8 ff 00 ff 00 ff 00 07 00    	movabsq	$0x700ff00ff00ff, %rax # imm = 0x700FF00FF00FF
13370000310f: 48 21 c8                 	andq	%rcx, %rax
133700003112: 4c 01 c8                 	addq	%r9, %rax
133700003115: 48 0f af c2              	imulq	%rdx, %rax
133700003119: 48 c1 e8 30              	shrq	$0x30, %rax
13370000311d: 48 01 f8                 	addq	%rdi, %rax
133700003120: 0f 28 75 90              	movaps	-0x70(%rbp), %xmm6
133700003124: 0f 28 7d a0              	movaps	-0x60(%rbp), %xmm7
133700003128: 44 0f 28 45 b0           	movaps	-0x50(%rbp), %xmm8
13370000312d: 44 0f 28 4d c0           	movaps	-0x40(%rbp), %xmm9
133700003132: 44 0f 28 55 d0           	movaps	-0x30(%rbp), %xmm10
133700003137: 44 0f 28 5d e0           	movaps	-0x20(%rbp), %xmm11
13370000313c: 44 0f 28 65 f0           	movaps	-0x10(%rbp), %xmm12
133700003141: 48 83 c4 70              	addq	$0x70, %rsp
133700003145: 5b                       	popq	%rbx
133700003146: 5f                       	popq	%rdi
133700003147: 5e                       	popq	%rsi
133700003148: 41 5c                    	popq	%r12
13370000314a: 41 5e                    	popq	%r14
13370000314c: 41 5f                    	popq	%r15
13370000314e: 5d                       	popq	%rbp
13370000314f: c3                       	retq

0000133700003150 <_ZN4core3str19slice_error_fail_rt17hac817e22ee790988E>:
133700003150: 55                       	pushq	%rbp
133700003151: 56                       	pushq	%rsi
133700003152: 48 81 ec f8 00 00 00     	subq	$0xf8, %rsp
133700003159: 48 8d ac 24 80 00 00 00  	leaq	0x80(%rsp), %rbp
133700003161: 48 89 d0                 	movq	%rdx, %rax
133700003164: 48 8b 95 b0 00 00 00     	movq	0xb0(%rbp), %rdx
13370000316b: 4c 89 45 58              	movq	%r8, 0x58(%rbp)
13370000316f: 4c 89 4d 50              	movq	%r9, 0x50(%rbp)
133700003173: 48 3d 01 01 00 00        	cmpq	$0x101, %rax            # imm = 0x101
133700003179: 72 59                    	jb	0x1337000031d4 <_ZN4core3str19slice_error_fail_rt17hac817e22ee790988E+0x84>
13370000317b: 41 bb 03 00 00 00        	movl	$0x3, %r11d
133700003181: 80 b9 00 01 00 00 bf     	cmpb	$-0x41, 0x100(%rcx)
133700003188: 7f 1d                    	jg	0x1337000031a7 <_ZN4core3str19slice_error_fail_rt17hac817e22ee790988E+0x57>
13370000318a: 41 bb 02 00 00 00        	movl	$0x2, %r11d
133700003190: 80 b9 ff 00 00 00 bf     	cmpb	$-0x41, 0xff(%rcx)
133700003197: 7f 0e                    	jg	0x1337000031a7 <_ZN4core3str19slice_error_fail_rt17hac817e22ee790988E+0x57>
133700003199: 45 31 db                 	xorl	%r11d, %r11d
13370000319c: 80 b9 fe 00 00 00 c0     	cmpb	$-0x40, 0xfe(%rcx)
1337000031a3: 41 0f 9d c3              	setge	%r11b
1337000031a7: 4d 8d 93 fd 00 00 00     	leaq	0xfd(%r11), %r10
1337000031ae: 42 80 bc 19 fd 00 00 00 bf       	cmpb	$-0x41, 0xfd(%rcx,%r11)
1337000031b7: 0f 8e 2f 01 00 00        	jle	0x1337000032ec <_ZN4core3str19slice_error_fail_rt17hac817e22ee790988E+0x19c>
1337000031bd: 48 89 4d 60              	movq	%rcx, 0x60(%rbp)
1337000031c1: 4c 89 55 68              	movq	%r10, 0x68(%rbp)
1337000031c5: 41 ba 05 00 00 00        	movl	$0x5, %r10d
1337000031cb: 4c 8d 1d 5e 22 00 00     	leaq	0x225e(%rip), %r11      # 0x133700005430 <anon.f5e50f8ee13097b708e82fd3a822e157.387>
1337000031d2: eb 11                    	jmp	0x1337000031e5 <_ZN4core3str19slice_error_fail_rt17hac817e22ee790988E+0x95>
1337000031d4: 48 89 4d 60              	movq	%rcx, 0x60(%rbp)
1337000031d8: 48 89 45 68              	movq	%rax, 0x68(%rbp)
1337000031dc: 41 bb 01 00 00 00        	movl	$0x1, %r11d
1337000031e2: 45 31 d2                 	xorl	%r10d, %r10d
1337000031e5: 4c 89 5d c0              	movq	%r11, -0x40(%rbp)
1337000031e9: 4c 89 55 c8              	movq	%r10, -0x38(%rbp)
1337000031ed: 49 39 c0                 	cmpq	%rax, %r8
1337000031f0: 41 0f 97 c2              	seta	%r10b
1337000031f4: 49 39 c1                 	cmpq	%rax, %r9
1337000031f7: 41 0f 97 c3              	seta	%r11b
1337000031fb: 45 08 d3                 	orb	%r10b, %r11b
1337000031fe: 74 71                    	je	0x133700003271 <_ZN4core3str19slice_error_fail_rt17hac817e22ee790988E+0x121>
133700003200: 49 39 c0                 	cmpq	%rax, %r8
133700003203: 4d 0f 47 c8              	cmovaq	%r8, %r9
133700003207: 4c 89 4d b0              	movq	%r9, -0x50(%rbp)
13370000320b: 48 8d 45 b0              	leaq	-0x50(%rbp), %rax
13370000320f: 48 89 45 d0              	movq	%rax, -0x30(%rbp)
133700003213: 48 8d 05 26 09 00 00     	leaq	0x926(%rip), %rax       # 0x133700003b40 <_ZN4core3fmt3num3imp54_$LT$impl$u20$core..fmt..Display$u20$for$u20$usize$GT$3fmt17hef09a08323db3a66E>
13370000321a: 48 89 45 d8              	movq	%rax, -0x28(%rbp)
13370000321e: 48 8d 45 60              	leaq	0x60(%rbp), %rax
133700003222: 48 89 45 e0              	movq	%rax, -0x20(%rbp)
133700003226: 48 8d 05 33 0a 00 00     	leaq	0xa33(%rip), %rax       # 0x133700003c60 <_ZN44_$LT$$RF$T$u20$as$u20$core..fmt..Display$GT$3fmt17h7c8bfe175265d571E>
13370000322d: 48 89 45 e8              	movq	%rax, -0x18(%rbp)
133700003231: 48 8d 4d c0              	leaq	-0x40(%rbp), %rcx
133700003235: 48 89 4d f0              	movq	%rcx, -0x10(%rbp)
133700003239: 48 89 45 f8              	movq	%rax, -0x8(%rbp)
13370000323d: 48 8d 05 fc 22 00 00     	leaq	0x22fc(%rip), %rax      # 0x133700005540 <anon.f5e50f8ee13097b708e82fd3a822e157.399>
133700003244: 48 89 45 20              	movq	%rax, 0x20(%rbp)
133700003248: 48 c7 45 28 03 00 00 00  	movq	$0x3, 0x28(%rbp)
133700003250: 48 c7 45 40 00 00 00 00  	movq	$0x0, 0x40(%rbp)
133700003258: 48 8d 45 d0              	leaq	-0x30(%rbp), %rax
13370000325c: 48 89 45 30              	movq	%rax, 0x30(%rbp)
133700003260: 48 c7 45 38 03 00 00 00  	movq	$0x3, 0x38(%rbp)
133700003268: 48 8d 4d 20              	leaq	0x20(%rbp), %rcx
13370000326c: e8 af 0b 00 00           	callq	0x133700003e20 <_ZN4core9panicking9panic_fmt17h1dd2a59cf4445dd4E>
133700003271: 4d 39 c8                 	cmpq	%r9, %r8
133700003274: 0f 86 85 00 00 00        	jbe	0x1337000032ff <_ZN4core3str19slice_error_fail_rt17hac817e22ee790988E+0x1af>
13370000327a: 48 8d 45 58              	leaq	0x58(%rbp), %rax
13370000327e: 48 89 45 d0              	movq	%rax, -0x30(%rbp)
133700003282: 48 8d 05 b7 08 00 00     	leaq	0x8b7(%rip), %rax       # 0x133700003b40 <_ZN4core3fmt3num3imp54_$LT$impl$u20$core..fmt..Display$u20$for$u20$usize$GT$3fmt17hef09a08323db3a66E>
133700003289: 48 89 45 d8              	movq	%rax, -0x28(%rbp)
13370000328d: 48 8d 4d 50              	leaq	0x50(%rbp), %rcx
133700003291: 48 89 4d e0              	movq	%rcx, -0x20(%rbp)
133700003295: 48 89 45 e8              	movq	%rax, -0x18(%rbp)
133700003299: 48 8d 45 60              	leaq	0x60(%rbp), %rax
13370000329d: 48 89 45 f0              	movq	%rax, -0x10(%rbp)
1337000032a1: 48 8d 05 b8 09 00 00     	leaq	0x9b8(%rip), %rax       # 0x133700003c60 <_ZN44_$LT$$RF$T$u20$as$u20$core..fmt..Display$GT$3fmt17h7c8bfe175265d571E>
1337000032a8: 48 89 45 f8              	movq	%rax, -0x8(%rbp)
1337000032ac: 48 8d 4d c0              	leaq	-0x40(%rbp), %rcx
1337000032b0: 48 89 4d 00              	movq	%rcx, (%rbp)
1337000032b4: 48 89 45 08              	movq	%rax, 0x8(%rbp)
1337000032b8: 48 8d 05 99 21 00 00     	leaq	0x2199(%rip), %rax      # 0x133700005458 <anon.f5e50f8ee13097b708e82fd3a822e157.392>
1337000032bf: 48 89 45 20              	movq	%rax, 0x20(%rbp)
1337000032c3: 48 c7 45 28 04 00 00 00  	movq	$0x4, 0x28(%rbp)
1337000032cb: 48 c7 45 40 00 00 00 00  	movq	$0x0, 0x40(%rbp)
1337000032d3: 48 8d 45 d0              	leaq	-0x30(%rbp), %rax
1337000032d7: 48 89 45 30              	movq	%rax, 0x30(%rbp)
1337000032db: 48 c7 45 38 04 00 00 00  	movq	$0x4, 0x38(%rbp)
1337000032e3: 48 8d 4d 20              	leaq	0x20(%rbp), %rcx
1337000032e7: e8 34 0b 00 00           	callq	0x133700003e20 <_ZN4core9panicking9panic_fmt17h1dd2a59cf4445dd4E>
1337000032ec: 48 89 54 24 20           	movq	%rdx, 0x20(%rsp)
1337000032f1: 48 89 c2                 	movq	%rax, %rdx
1337000032f4: 45 31 c0                 	xorl	%r8d, %r8d
1337000032f7: 4d 89 d1                 	movq	%r10, %r9
1337000032fa: e8 61 0d 00 00           	callq	0x133700004060 <_ZN4core3str16slice_error_fail17h1e5d268cd08b78cdE>
1337000032ff: 4d 85 c0                 	testq	%r8, %r8
133700003302: 41 0f 94 c2              	sete	%r10b
133700003306: 49 39 c0                 	cmpq	%rax, %r8
133700003309: 41 0f 93 c3              	setae	%r11b
13370000330d: 45 08 d3                 	orb	%r10b, %r11b
133700003310: 75 14                    	jne	0x133700003326 <_ZN4core3str19slice_error_fail_rt17hac817e22ee790988E+0x1d6>
133700003312: 42 80 3c 01 c0           	cmpb	$-0x40, (%rcx,%r8)
133700003317: 4c 8d 45 50              	leaq	0x50(%rbp), %r8
13370000331b: 4c 8d 4d 58              	leaq	0x58(%rbp), %r9
13370000331f: 4d 0f 4d c8              	cmovgeq	%r8, %r9
133700003323: 4d 8b 09                 	movq	(%r9), %r9
133700003326: 4c 89 4d a8              	movq	%r9, -0x58(%rbp)
13370000332a: 49 89 c0                 	movq	%rax, %r8
13370000332d: 49 39 c1                 	cmpq	%rax, %r9
133700003330: 0f 83 92 00 00 00        	jae	0x1337000033c8 <_ZN4core3str19slice_error_fail_rt17hac817e22ee790988E+0x278>
133700003336: 45 31 d2                 	xorl	%r10d, %r10d
133700003339: 4d 89 c8                 	movq	%r9, %r8
13370000333c: 49 83 e8 03              	subq	$0x3, %r8
133700003340: 4d 0f 43 d0              	cmovaeq	%r8, %r10
133700003344: 4d 8d 59 01              	leaq	0x1(%r9), %r11
133700003348: 4d 39 d3                 	cmpq	%r10, %r11
13370000334b: 73 12                    	jae	0x13370000335f <_ZN4core3str19slice_error_fail_rt17hac817e22ee790988E+0x20f>
13370000334d: 4c 8d 05 34 22 00 00     	leaq	0x2234(%rip), %r8       # 0x133700005588 <anon.f5e50f8ee13097b708e82fd3a822e157.401>
133700003354: 4c 89 d1                 	movq	%r10, %rcx
133700003357: 4c 89 da                 	movq	%r11, %rdx
13370000335a: e8 91 0c 00 00           	callq	0x133700003ff0 <_ZN4core5slice5index22slice_index_order_fail17h95f96c65778ac354E>
13370000335f: 4d 89 d8                 	movq	%r11, %r8
133700003362: 4d 29 d0                 	subq	%r10, %r8
133700003365: 74 5e                    	je	0x1337000033c5 <_ZN4core3str19slice_error_fail_rt17hac817e22ee790988E+0x275>
133700003367: 42 80 3c 09 bf           	cmpb	$-0x41, (%rcx,%r9)
13370000336c: 7e 05                    	jle	0x133700003373 <_ZN4core3str19slice_error_fail_rt17hac817e22ee790988E+0x223>
13370000336e: 49 ff c8                 	decq	%r8
133700003371: eb 52                    	jmp	0x1337000033c5 <_ZN4core3str19slice_error_fail_rt17hac817e22ee790988E+0x275>
133700003373: 4d 39 ca                 	cmpq	%r9, %r10
133700003376: 74 4d                    	je	0x1337000033c5 <_ZN4core3str19slice_error_fail_rt17hac817e22ee790988E+0x275>
133700003378: 49 01 cb                 	addq	%rcx, %r11
13370000337b: 41 80 7b fe bf           	cmpb	$-0x41, -0x2(%r11)
133700003380: 7e 06                    	jle	0x133700003388 <_ZN4core3str19slice_error_fail_rt17hac817e22ee790988E+0x238>
133700003382: 49 83 c0 fe              	addq	$-0x2, %r8
133700003386: eb 3d                    	jmp	0x1337000033c5 <_ZN4core3str19slice_error_fail_rt17hac817e22ee790988E+0x275>
133700003388: 4e 8d 0c 11              	leaq	(%rcx,%r10), %r9
13370000338c: 49 8d 73 fe              	leaq	-0x2(%r11), %rsi
133700003390: 49 39 f1                 	cmpq	%rsi, %r9
133700003393: 74 30                    	je	0x1337000033c5 <_ZN4core3str19slice_error_fail_rt17hac817e22ee790988E+0x275>
133700003395: 41 80 7b fd bf           	cmpb	$-0x41, -0x3(%r11)
13370000339a: 7e 06                    	jle	0x1337000033a2 <_ZN4core3str19slice_error_fail_rt17hac817e22ee790988E+0x252>
13370000339c: 49 83 c0 fd              	addq	$-0x3, %r8
1337000033a0: eb 23                    	jmp	0x1337000033c5 <_ZN4core3str19slice_error_fail_rt17hac817e22ee790988E+0x275>
1337000033a2: 49 8d 73 fd              	leaq	-0x3(%r11), %rsi
1337000033a6: 49 39 f1                 	cmpq	%rsi, %r9
1337000033a9: 74 1a                    	je	0x1337000033c5 <_ZN4core3str19slice_error_fail_rt17hac817e22ee790988E+0x275>
1337000033ab: 41 80 7b fc bf           	cmpb	$-0x41, -0x4(%r11)
1337000033b0: 7e 06                    	jle	0x1337000033b8 <_ZN4core3str19slice_error_fail_rt17hac817e22ee790988E+0x268>
1337000033b2: 49 83 c0 fc              	addq	$-0x4, %r8
1337000033b6: eb 0d                    	jmp	0x1337000033c5 <_ZN4core3str19slice_error_fail_rt17hac817e22ee790988E+0x275>
1337000033b8: 49 83 c3 fc              	addq	$-0x4, %r11
1337000033bc: 4d 39 d9                 	cmpq	%r11, %r9
1337000033bf: 74 04                    	je	0x1337000033c5 <_ZN4core3str19slice_error_fail_rt17hac817e22ee790988E+0x275>
1337000033c1: 49 83 c0 fb              	addq	$-0x5, %r8
1337000033c5: 4d 01 d0                 	addq	%r10, %r8
1337000033c8: 4d 85 c0                 	testq	%r8, %r8
1337000033cb: 75 0d                    	jne	0x1337000033da <_ZN4core3str19slice_error_fail_rt17hac817e22ee790988E+0x28a>
1337000033cd: 49 39 c0                 	cmpq	%rax, %r8
1337000033d0: 75 16                    	jne	0x1337000033e8 <_ZN4core3str19slice_error_fail_rt17hac817e22ee790988E+0x298>
1337000033d2: 48 89 d1                 	movq	%rdx, %rcx
1337000033d5: e8 26 0a 00 00           	callq	0x133700003e00 <_ZN4core6option13unwrap_failed17h38cc4d172d0f7208E>
1337000033da: 49 39 c0                 	cmpq	%rax, %r8
1337000033dd: 73 25                    	jae	0x133700003404 <_ZN4core3str19slice_error_fail_rt17hac817e22ee790988E+0x2b4>
1337000033df: 42 80 3c 01 bf           	cmpb	$-0x41, (%rcx,%r8)
1337000033e4: 7f e7                    	jg	0x1337000033cd <_ZN4core3str19slice_error_fail_rt17hac817e22ee790988E+0x27d>
1337000033e6: eb 1e                    	jmp	0x133700003406 <_ZN4core3str19slice_error_fail_rt17hac817e22ee790988E+0x2b6>
1337000033e8: 46 0f b6 14 01           	movzbl	(%rcx,%r8), %r10d
1337000033ed: 45 0f b6 ca              	movzbl	%r10b, %r9d
1337000033f1: 45 84 c9                 	testb	%r9b, %r9b
1337000033f4: 78 20                    	js	0x133700003416 <_ZN4core3str19slice_error_fail_rt17hac817e22ee790988E+0x2c6>
1337000033f6: 44 89 4d 74              	movl	%r9d, 0x74(%rbp)
1337000033fa: b8 01 00 00 00           	movl	$0x1, %eax
1337000033ff: e9 a4 00 00 00           	jmp	0x1337000034a8 <_ZN4core3str19slice_error_fail_rt17hac817e22ee790988E+0x358>
133700003404: 74 c7                    	je	0x1337000033cd <_ZN4core3str19slice_error_fail_rt17hac817e22ee790988E+0x27d>
133700003406: 48 89 54 24 20           	movq	%rdx, 0x20(%rsp)
13370000340b: 48 89 c2                 	movq	%rax, %rdx
13370000340e: 49 89 c1                 	movq	%rax, %r9
133700003411: e8 4a 0c 00 00           	callq	0x133700004060 <_ZN4core3str16slice_error_fail17h1e5d268cd08b78cdE>
133700003416: 44 89 c8                 	movl	%r9d, %eax
133700003419: 83 e0 1f                 	andl	$0x1f, %eax
13370000341c: 46 0f b6 5c 01 01        	movzbl	0x1(%rcx,%r8), %r11d
133700003422: 41 83 e3 3f              	andl	$0x3f, %r11d
133700003426: 41 80 f9 df              	cmpb	$-0x21, %r9b
13370000342a: 76 3d                    	jbe	0x133700003469 <_ZN4core3str19slice_error_fail_rt17hac817e22ee790988E+0x319>
13370000342c: 46 0f b6 4c 01 02        	movzbl	0x2(%rcx,%r8), %r9d
133700003432: 41 c1 e3 06              	shll	$0x6, %r11d
133700003436: 41 83 e1 3f              	andl	$0x3f, %r9d
13370000343a: 45 09 d9                 	orl	%r11d, %r9d
13370000343d: 41 80 fa f0              	cmpb	$-0x10, %r10b
133700003441: 72 30                    	jb	0x133700003473 <_ZN4core3str19slice_error_fail_rt17hac817e22ee790988E+0x323>
133700003443: 42 0f b6 4c 01 03        	movzbl	0x3(%rcx,%r8), %ecx
133700003449: 83 e0 07                 	andl	$0x7, %eax
13370000344c: c1 e0 12                 	shll	$0x12, %eax
13370000344f: 41 c1 e1 06              	shll	$0x6, %r9d
133700003453: 83 e1 3f                 	andl	$0x3f, %ecx
133700003456: 44 09 c9                 	orl	%r9d, %ecx
133700003459: 09 c1                    	orl	%eax, %ecx
13370000345b: 81 f9 00 00 11 00        	cmpl	$0x110000, %ecx         # imm = 0x110000
133700003461: 0f 84 6b ff ff ff        	je	0x1337000033d2 <_ZN4core3str19slice_error_fail_rt17hac817e22ee790988E+0x282>
133700003467: eb 13                    	jmp	0x13370000347c <_ZN4core3str19slice_error_fail_rt17hac817e22ee790988E+0x32c>
133700003469: c1 e0 06                 	shll	$0x6, %eax
13370000346c: 44 09 d8                 	orl	%r11d, %eax
13370000346f: 89 c1                    	movl	%eax, %ecx
133700003471: eb 09                    	jmp	0x13370000347c <_ZN4core3str19slice_error_fail_rt17hac817e22ee790988E+0x32c>
133700003473: c1 e0 0c                 	shll	$0xc, %eax
133700003476: 41 09 c1                 	orl	%eax, %r9d
133700003479: 44 89 c9                 	movl	%r9d, %ecx
13370000347c: 89 4d 74                 	movl	%ecx, 0x74(%rbp)
13370000347f: b8 01 00 00 00           	movl	$0x1, %eax
133700003484: 81 f9 80 00 00 00        	cmpl	$0x80, %ecx
13370000348a: 72 1c                    	jb	0x1337000034a8 <_ZN4core3str19slice_error_fail_rt17hac817e22ee790988E+0x358>
13370000348c: b8 02 00 00 00           	movl	$0x2, %eax
133700003491: 81 f9 00 08 00 00        	cmpl	$0x800, %ecx            # imm = 0x800
133700003497: 72 0f                    	jb	0x1337000034a8 <_ZN4core3str19slice_error_fail_rt17hac817e22ee790988E+0x358>
133700003499: 81 f9 00 00 01 00        	cmpl	$0x10000, %ecx          # imm = 0x10000
13370000349f: b8 04 00 00 00           	movl	$0x4, %eax
1337000034a4: 48 83 d8 00              	sbbq	$0x0, %rax
1337000034a8: 4c 01 c0                 	addq	%r8, %rax
1337000034ab: 4c 89 45 b0              	movq	%r8, -0x50(%rbp)
1337000034af: 48 89 45 b8              	movq	%rax, -0x48(%rbp)
1337000034b3: 48 8d 45 a8              	leaq	-0x58(%rbp), %rax
1337000034b7: 48 89 45 d0              	movq	%rax, -0x30(%rbp)
1337000034bb: 48 8d 05 7e 06 00 00     	leaq	0x67e(%rip), %rax       # 0x133700003b40 <_ZN4core3fmt3num3imp54_$LT$impl$u20$core..fmt..Display$u20$for$u20$usize$GT$3fmt17hef09a08323db3a66E>
1337000034c2: 48 89 45 d8              	movq	%rax, -0x28(%rbp)
1337000034c6: 48 8d 45 74              	leaq	0x74(%rbp), %rax
1337000034ca: 48 89 45 e0              	movq	%rax, -0x20(%rbp)
1337000034ce: 48 8d 05 bb f5 ff ff     	leaq	-0xa45(%rip), %rax      # 0x133700002a90 <_ZN41_$LT$char$u20$as$u20$core..fmt..Debug$GT$3fmt17h363fa39fac16bcfeE>
1337000034d5: 48 89 45 e8              	movq	%rax, -0x18(%rbp)
1337000034d9: 48 8d 45 b0              	leaq	-0x50(%rbp), %rax
1337000034dd: 48 89 45 f0              	movq	%rax, -0x10(%rbp)
1337000034e1: 48 8d 05 a8 e3 ff ff     	leaq	-0x1c58(%rip), %rax     # 0x133700001890 <_ZN71_$LT$core..ops..range..Range$LT$Idx$GT$$u20$as$u20$core..fmt..Debug$GT$3fmt17h9a2580987d22de2eE>
1337000034e8: 48 89 45 f8              	movq	%rax, -0x8(%rbp)
1337000034ec: 48 8d 45 60              	leaq	0x60(%rbp), %rax
1337000034f0: 48 89 45 00              	movq	%rax, (%rbp)
1337000034f4: 48 8d 05 65 07 00 00     	leaq	0x765(%rip), %rax       # 0x133700003c60 <_ZN44_$LT$$RF$T$u20$as$u20$core..fmt..Display$GT$3fmt17h7c8bfe175265d571E>
1337000034fb: 48 89 45 08              	movq	%rax, 0x8(%rbp)
1337000034ff: 48 8d 4d c0              	leaq	-0x40(%rbp), %rcx
133700003503: 48 89 4d 10              	movq	%rcx, 0x10(%rbp)
133700003507: 48 89 45 18              	movq	%rax, 0x18(%rbp)
13370000350b: 48 8d 05 c6 1f 00 00     	leaq	0x1fc6(%rip), %rax      # 0x1337000054d8 <anon.f5e50f8ee13097b708e82fd3a822e157.397>
133700003512: 48 89 45 20              	movq	%rax, 0x20(%rbp)
133700003516: 48 c7 45 28 05 00 00 00  	movq	$0x5, 0x28(%rbp)
13370000351e: 48 c7 45 40 00 00 00 00  	movq	$0x0, 0x40(%rbp)
133700003526: 48 8d 45 d0              	leaq	-0x30(%rbp), %rax
13370000352a: 48 89 45 30              	movq	%rax, 0x30(%rbp)
13370000352e: 48 c7 45 38 05 00 00 00  	movq	$0x5, 0x38(%rbp)
133700003536: 48 8d 4d 20              	leaq	0x20(%rbp), %rcx
13370000353a: e8 e1 08 00 00           	callq	0x133700003e20 <_ZN4core9panicking9panic_fmt17h1dd2a59cf4445dd4E>
13370000353f: cc                       	int3

0000133700003540 <_ZN4core7unicode9printable5check17h381f629686203cc4E>:
133700003540: 55                       	pushq	%rbp
133700003541: 41 56                    	pushq	%r14
133700003543: 56                       	pushq	%rsi
133700003544: 57                       	pushq	%rdi
133700003545: 53                       	pushq	%rbx
133700003546: 48 83 ec 20              	subq	$0x20, %rsp
13370000354a: 48 8d 6c 24 20           	leaq	0x20(%rsp), %rbp
13370000354f: 4d 85 c0                 	testq	%r8, %r8
133700003552: 74 76                    	je	0x1337000035ca <_ZN4core7unicode9printable5check17h381f629686203cc4E+0x8a>
133700003554: 48 89 d0                 	movq	%rdx, %rax
133700003557: 48 8b 55 50              	movq	0x50(%rbp), %rdx
13370000355b: 89 ce                    	movl	%ecx, %esi
13370000355d: c1 ee 08                 	shrl	$0x8, %esi
133700003560: 4e 8d 04 40              	leaq	(%rax,%r8,2), %r8
133700003564: 45 31 db                 	xorl	%r11d, %r11d
133700003567: 48 89 c3                 	movq	%rax, %rbx
13370000356a: 0f b6 78 01              	movzbl	0x1(%rax), %edi
13370000356e: 48 83 c0 02              	addq	$0x2, %rax
133700003572: 4d 8d 14 3b              	leaq	(%r11,%rdi), %r10
133700003576: 40 38 33                 	cmpb	%sil, (%rbx)
133700003579: 75 45                    	jne	0x1337000035c0 <_ZN4core7unicode9printable5check17h381f629686203cc4E+0x80>
13370000357b: 4d 39 da                 	cmpq	%r11, %r10
13370000357e: 0f 82 c2 00 00 00        	jb	0x133700003646 <_ZN4core7unicode9printable5check17h381f629686203cc4E+0x106>
133700003584: 49 39 d2                 	cmpq	%rdx, %r10
133700003587: 0f 87 cb 00 00 00        	ja	0x133700003658 <_ZN4core7unicode9printable5check17h381f629686203cc4E+0x118>
13370000358d: 4d 01 cb                 	addq	%r9, %r11
133700003590: 31 db                    	xorl	%ebx, %ebx
133700003592: 66 66 66 66 66 2e 0f 1f 84 00 00 00 00 00	nopw	%cs:(%rax,%rax)
1337000035a0: 48 39 df                 	cmpq	%rbx, %rdi
1337000035a3: 74 1d                    	je	0x1337000035c2 <_ZN4core7unicode9printable5check17h381f629686203cc4E+0x82>
1337000035a5: 4c 8d 73 01              	leaq	0x1(%rbx), %r14
1337000035a9: 41 38 0c 1b              	cmpb	%cl, (%r11,%rbx)
1337000035ad: 4c 89 f3                 	movq	%r14, %rbx
1337000035b0: 75 ee                    	jne	0x1337000035a0 <_ZN4core7unicode9printable5check17h381f629686203cc4E+0x60>
1337000035b2: eb 73                    	jmp	0x133700003627 <_ZN4core7unicode9printable5check17h381f629686203cc4E+0xe7>
1337000035b4: 66 66 66 2e 0f 1f 84 00 00 00 00 00      	nopw	%cs:(%rax,%rax)
1337000035c0: 77 08                    	ja	0x1337000035ca <_ZN4core7unicode9printable5check17h381f629686203cc4E+0x8a>
1337000035c2: 4d 89 d3                 	movq	%r10, %r11
1337000035c5: 4c 39 c0                 	cmpq	%r8, %rax
1337000035c8: 75 9d                    	jne	0x133700003567 <_ZN4core7unicode9printable5check17h381f629686203cc4E+0x27>
1337000035ca: 48 8b 55 60              	movq	0x60(%rbp), %rdx
1337000035ce: 48 85 d2                 	testq	%rdx, %rdx
1337000035d1: 74 58                    	je	0x13370000362b <_ZN4core7unicode9printable5check17h381f629686203cc4E+0xeb>
1337000035d3: 4c 8b 45 58              	movq	0x58(%rbp), %r8
1337000035d7: 4c 01 c2                 	addq	%r8, %rdx
1337000035da: 0f b7 c9                 	movzwl	%cx, %ecx
1337000035dd: b0 01                    	movb	$0x1, %al
1337000035df: 90                       	nop
1337000035e0: 4d 8d 50 01              	leaq	0x1(%r8), %r10
1337000035e4: 45 0f be 08              	movsbl	(%r8), %r9d
1337000035e8: 45 85 c9                 	testl	%r9d, %r9d
1337000035eb: 78 13                    	js	0x133700003600 <_ZN4core7unicode9printable5check17h381f629686203cc4E+0xc0>
1337000035ed: 4d 89 d0                 	movq	%r10, %r8
1337000035f0: 44 29 c9                 	subl	%r9d, %ecx
1337000035f3: 79 29                    	jns	0x13370000361e <_ZN4core7unicode9printable5check17h381f629686203cc4E+0xde>
1337000035f5: eb 36                    	jmp	0x13370000362d <_ZN4core7unicode9printable5check17h381f629686203cc4E+0xed>
1337000035f7: 66 0f 1f 84 00 00 00 00 00       	nopw	(%rax,%rax)
133700003600: 49 39 d2                 	cmpq	%rdx, %r10
133700003603: 74 35                    	je	0x13370000363a <_ZN4core7unicode9printable5check17h381f629686203cc4E+0xfa>
133700003605: 45 0f b6 50 01           	movzbl	0x1(%r8), %r10d
13370000360a: 49 83 c0 02              	addq	$0x2, %r8
13370000360e: 41 83 e1 7f              	andl	$0x7f, %r9d
133700003612: 41 c1 e1 08              	shll	$0x8, %r9d
133700003616: 45 09 d1                 	orl	%r10d, %r9d
133700003619: 44 29 c9                 	subl	%r9d, %ecx
13370000361c: 78 0f                    	js	0x13370000362d <_ZN4core7unicode9printable5check17h381f629686203cc4E+0xed>
13370000361e: 34 01                    	xorb	$0x1, %al
133700003620: 49 39 d0                 	cmpq	%rdx, %r8
133700003623: 75 bb                    	jne	0x1337000035e0 <_ZN4core7unicode9printable5check17h381f629686203cc4E+0xa0>
133700003625: eb 06                    	jmp	0x13370000362d <_ZN4core7unicode9printable5check17h381f629686203cc4E+0xed>
133700003627: 31 c0                    	xorl	%eax, %eax
133700003629: eb 02                    	jmp	0x13370000362d <_ZN4core7unicode9printable5check17h381f629686203cc4E+0xed>
13370000362b: b0 01                    	movb	$0x1, %al
13370000362d: 24 01                    	andb	$0x1, %al
13370000362f: 48 83 c4 20              	addq	$0x20, %rsp
133700003633: 5b                       	popq	%rbx
133700003634: 5f                       	popq	%rdi
133700003635: 5e                       	popq	%rsi
133700003636: 41 5e                    	popq	%r14
133700003638: 5d                       	popq	%rbp
133700003639: c3                       	retq
13370000363a: 48 8d 0d 7f 1f 00 00     	leaq	0x1f7f(%rip), %rcx      # 0x1337000055c0 <anon.f5e50f8ee13097b708e82fd3a822e157.417>
133700003641: e8 ba 07 00 00           	callq	0x133700003e00 <_ZN4core6option13unwrap_failed17h38cc4d172d0f7208E>
133700003646: 4c 8d 05 8b 1f 00 00     	leaq	0x1f8b(%rip), %r8       # 0x1337000055d8 <anon.f5e50f8ee13097b708e82fd3a822e157.418>
13370000364d: 4c 89 d9                 	movq	%r11, %rcx
133700003650: 4c 89 d2                 	movq	%r10, %rdx
133700003653: e8 98 09 00 00           	callq	0x133700003ff0 <_ZN4core5slice5index22slice_index_order_fail17h95f96c65778ac354E>
133700003658: 4c 8d 05 79 1f 00 00     	leaq	0x1f79(%rip), %r8       # 0x1337000055d8 <anon.f5e50f8ee13097b708e82fd3a822e157.418>
13370000365f: 4c 89 d1                 	movq	%r10, %rcx
133700003662: e8 19 09 00 00           	callq	0x133700003f80 <_ZN4core5slice5index24slice_end_index_len_fail17hc6e1761969869448E>
133700003667: cc                       	int3
133700003668: cc                       	int3
133700003669: cc                       	int3
13370000366a: cc                       	int3
13370000366b: cc                       	int3
13370000366c: cc                       	int3
13370000366d: cc                       	int3
13370000366e: cc                       	int3
13370000366f: cc                       	int3

0000133700003670 <_ZN4core7unicode9printable12is_printable17h22c1254dc27374ceE>:
133700003670: 55                       	pushq	%rbp
133700003671: 48 83 ec 40              	subq	$0x40, %rsp
133700003675: 48 8d 6c 24 40           	leaq	0x40(%rsp), %rbp
13370000367a: 83 f9 20                 	cmpl	$0x20, %ecx
13370000367d: 73 08                    	jae	0x133700003687 <_ZN4core7unicode9printable12is_printable17h22c1254dc27374ceE+0x17>
13370000367f: 31 c0                    	xorl	%eax, %eax
133700003681: 48 83 c4 40              	addq	$0x40, %rsp
133700003685: 5d                       	popq	%rbp
133700003686: c3                       	retq
133700003687: b0 01                    	movb	$0x1, %al
133700003689: 83 f9 7f                 	cmpl	$0x7f, %ecx
13370000368c: 72 f3                    	jb	0x133700003681 <_ZN4core7unicode9printable12is_printable17h22c1254dc27374ceE+0x11>
13370000368e: 81 f9 00 00 01 00        	cmpl	$0x10000, %ecx          # imm = 0x10000
133700003694: 73 34                    	jae	0x1337000036ca <_ZN4core7unicode9printable12is_printable17h22c1254dc27374ceE+0x5a>
133700003696: 48 8d 05 a1 23 00 00     	leaq	0x23a1(%rip), %rax      # 0x133700005a3e <anon.f5e50f8ee13097b708e82fd3a822e157.424>
13370000369d: 48 89 44 24 28           	movq	%rax, 0x28(%rsp)
1337000036a2: 48 c7 44 24 30 2d 01 00 00       	movq	$0x12d, 0x30(%rsp) # imm = 0x12D
1337000036ab: 48 c7 44 24 20 20 01 00 00       	movq	$0x120, 0x20(%rsp) # imm = 0x120
1337000036b4: 48 8d 15 13 22 00 00     	leaq	0x2213(%rip), %rdx      # 0x1337000058ce <anon.f5e50f8ee13097b708e82fd3a822e157.422>
1337000036bb: 4c 8d 0d 5c 22 00 00     	leaq	0x225c(%rip), %r9       # 0x13370000591e <anon.f5e50f8ee13097b708e82fd3a822e157.423>
1337000036c2: 41 b8 28 00 00 00        	movl	$0x28, %r8d
1337000036c8: eb 3a                    	jmp	0x133700003704 <_ZN4core7unicode9printable12is_printable17h22c1254dc27374ceE+0x94>
1337000036ca: 81 f9 00 00 02 00        	cmpl	$0x20000, %ecx          # imm = 0x20000
1337000036d0: 73 3e                    	jae	0x133700003710 <_ZN4core7unicode9printable12is_printable17h22c1254dc27374ceE+0xa0>
1337000036d2: 48 8d 05 33 20 00 00     	leaq	0x2033(%rip), %rax      # 0x13370000570c <anon.f5e50f8ee13097b708e82fd3a822e157.421>
1337000036d9: 48 89 44 24 28           	movq	%rax, 0x28(%rsp)
1337000036de: 48 c7 44 24 30 c2 01 00 00       	movq	$0x1c2, 0x30(%rsp) # imm = 0x1C2
1337000036e7: 48 c7 44 24 20 c4 00 00 00       	movq	$0xc4, 0x20(%rsp)
1337000036f0: 48 8d 15 f9 1e 00 00     	leaq	0x1ef9(%rip), %rdx      # 0x1337000055f0 <anon.f5e50f8ee13097b708e82fd3a822e157.419>
1337000036f7: 4c 8d 0d 4a 1f 00 00     	leaq	0x1f4a(%rip), %r9       # 0x133700005648 <anon.f5e50f8ee13097b708e82fd3a822e157.420>
1337000036fe: 41 b8 2c 00 00 00        	movl	$0x2c, %r8d
133700003704: e8 37 fe ff ff           	callq	0x133700003540 <_ZN4core7unicode9printable5check17h381f629686203cc4E>
133700003709: 90                       	nop
13370000370a: 48 83 c4 40              	addq	$0x40, %rsp
13370000370e: 5d                       	popq	%rbp
13370000370f: c3                       	retq
133700003710: 89 c8                    	movl	%ecx, %eax
133700003712: 25 e0 ff 1f 00           	andl	$0x1fffe0, %eax         # imm = 0x1FFFE0
133700003717: 3d e0 a6 02 00           	cmpl	$0x2a6e0, %eax          # imm = 0x2A6E0
13370000371c: 0f 95 c2                 	setne	%dl
13370000371f: 66 0f 6e c1              	movd	%ecx, %xmm0
133700003723: 66 0f 70 c0 00           	pshufd	$0x0, %xmm0, %xmm0      # xmm0 = xmm0[0,0,0,0]
133700003728: 66 0f fe 05 30 1a 00 00  	paddd	0x1a30(%rip), %xmm0     # 0x133700005160 <__xmm@fffd0800fffd1410fffd3150fffd48c0>
133700003730: 89 c8                    	movl	%ecx, %eax
133700003732: 25 fe ff 1f 00           	andl	$0x1ffffe, %eax         # imm = 0x1FFFFE
133700003737: 3d 1e b8 02 00           	cmpl	$0x2b81e, %eax          # imm = 0x2B81E
13370000373c: 0f 95 c0                 	setne	%al
13370000373f: 44 8d 81 00 00 fd ff     	leal	-0x30000(%rcx), %r8d
133700003746: 41 81 f8 1e fa ff ff     	cmpl	$0xfffffa1e, %r8d       # imm = 0xFFFFFA1E
13370000374d: 41 0f 92 c0              	setb	%r8b
133700003751: 44 8d 89 b0 ec fc ff     	leal	-0x31350(%rcx), %r9d
133700003758: 41 83 f9 fb              	cmpl	$-0x5, %r9d
13370000375c: 41 0f 92 c1              	setb	%r9b
133700003760: 44 8d 91 00 ff f1 ff     	leal	-0xe0100(%rcx), %r10d
133700003767: 41 81 fa b0 22 f5 ff     	cmpl	$0xfff522b0, %r10d      # imm = 0xFFF522B0
13370000376e: 41 0f 92 c2              	setb	%r10b
133700003772: 81 f9 f0 01 0e 00        	cmpl	$0xe01f0, %ecx          # imm = 0xE01F0
133700003778: 66 0f ef 05 f0 19 00 00  	pxor	0x19f0(%rip), %xmm0     # 0x133700005170 <__xmm@80000000800000008000000080000000>
133700003780: 0f 92 c1                 	setb	%cl
133700003783: 66 0f 66 05 f5 19 00 00  	pcmpgtd	0x19f5(%rip), %xmm0     # 0x133700005180 <__xmm@7ffff65d7ffffff07ffffff17ffffff9>
13370000378b: 44 0f 50 d8              	movmskps	%xmm0, %r11d
13370000378f: 45 85 db                 	testl	%r11d, %r11d
133700003792: 41 0f 94 c3              	sete	%r11b
133700003796: 45 20 c1                 	andb	%r8b, %r9b
133700003799: 45 20 d1                 	andb	%r10b, %r9b
13370000379c: 20 d0                    	andb	%dl, %al
13370000379e: 20 c8                    	andb	%cl, %al
1337000037a0: 44 20 c8                 	andb	%r9b, %al
1337000037a3: 44 20 d8                 	andb	%r11b, %al
1337000037a6: 48 83 c4 40              	addq	$0x40, %rsp
1337000037aa: 5d                       	popq	%rbp
1337000037ab: c3                       	retq
1337000037ac: cc                       	int3
1337000037ad: cc                       	int3
1337000037ae: cc                       	int3
1337000037af: cc                       	int3

00001337000037b0 <_ZN4core3fmt3num55_$LT$impl$u20$core..fmt..LowerHex$u20$for$u20$usize$GT$3fmt17h1e691191aba22781E>:
1337000037b0: 55                       	pushq	%rbp
1337000037b1: 56                       	pushq	%rsi
1337000037b2: 48 81 ec b8 00 00 00     	subq	$0xb8, %rsp
1337000037b9: 48 8d ac 24 80 00 00 00  	leaq	0x80(%rsp), %rbp
1337000037c1: 48 8b 09                 	movq	(%rcx), %rcx
1337000037c4: 4c 8d 4d 38              	leaq	0x38(%rbp), %r9
1337000037c8: 31 c0                    	xorl	%eax, %eax
1337000037ca: 49 89 c8                 	movq	%rcx, %r8
1337000037cd: 0f 1f 00                 	nopl	(%rax)
1337000037d0: 49 c1 e8 04              	shrq	$0x4, %r8
1337000037d4: 41 89 ca                 	movl	%ecx, %r10d
1337000037d7: 41 80 e2 0f              	andb	$0xf, %r10b
1337000037db: 45 8d 5a 30              	leal	0x30(%r10), %r11d
1337000037df: 41 8d 72 57              	leal	0x57(%r10), %esi
1337000037e3: 41 80 fa 0a              	cmpb	$0xa, %r10b
1337000037e7: 45 0f b6 d3              	movzbl	%r11b, %r10d
1337000037eb: 44 0f b6 de              	movzbl	%sil, %r11d
1337000037ef: 45 0f 42 da              	cmovbl	%r10d, %r11d
1337000037f3: 45 88 59 ff              	movb	%r11b, -0x1(%r9)
1337000037f7: 49 ff c9                 	decq	%r9
1337000037fa: 48 ff c0                 	incq	%rax
1337000037fd: 48 83 f9 10              	cmpq	$0x10, %rcx
133700003801: 4c 89 c1                 	movq	%r8, %rcx
133700003804: 73 ca                    	jae	0x1337000037d0 <_ZN4core3fmt3num55_$LT$impl$u20$core..fmt..LowerHex$u20$for$u20$usize$GT$3fmt17h1e691191aba22781E+0x20>
133700003806: b9 80 00 00 00           	movl	$0x80, %ecx
13370000380b: 48 29 c1                 	subq	%rax, %rcx
13370000380e: 48 81 f9 81 00 00 00     	cmpq	$0x81, %rcx
133700003815: 73 2c                    	jae	0x133700003843 <_ZN4core3fmt3num55_$LT$impl$u20$core..fmt..LowerHex$u20$for$u20$usize$GT$3fmt17h1e691191aba22781E+0x93>
133700003817: 48 89 44 24 28           	movq	%rax, 0x28(%rsp)
13370000381c: 4c 89 4c 24 20           	movq	%r9, 0x20(%rsp)
133700003821: 4c 8d 05 28 1a 00 00     	leaq	0x1a28(%rip), %r8       # 0x133700005250 <anon.f5e50f8ee13097b708e82fd3a822e157.314>
133700003828: 41 b9 02 00 00 00        	movl	$0x2, %r9d
13370000382e: 48 89 d1                 	movq	%rdx, %rcx
133700003831: b2 01                    	movb	$0x1, %dl
133700003833: e8 08 e5 ff ff           	callq	0x133700001d40 <_ZN4core3fmt9Formatter12pad_integral17h2670696f36a93076E>
133700003838: 90                       	nop
133700003839: 48 81 c4 b8 00 00 00     	addq	$0xb8, %rsp
133700003840: 5e                       	popq	%rsi
133700003841: 5d                       	popq	%rbp
133700003842: c3                       	retq
133700003843: 4c 8d 05 ee 19 00 00     	leaq	0x19ee(%rip), %r8       # 0x133700005238 <anon.f5e50f8ee13097b708e82fd3a822e157.313>
13370000384a: ba 80 00 00 00           	movl	$0x80, %edx
13370000384f: e8 bc 06 00 00           	callq	0x133700003f10 <_ZN4core5slice5index26slice_start_index_len_fail17h8dfa947fd6c17051E>
133700003854: cc                       	int3
133700003855: cc                       	int3
133700003856: cc                       	int3
133700003857: cc                       	int3
133700003858: cc                       	int3
133700003859: cc                       	int3
13370000385a: cc                       	int3
13370000385b: cc                       	int3
13370000385c: cc                       	int3
13370000385d: cc                       	int3
13370000385e: cc                       	int3
13370000385f: cc                       	int3

0000133700003860 <_ZN4core3fmt3num55_$LT$impl$u20$core..fmt..UpperHex$u20$for$u20$usize$GT$3fmt17hba906ac57025ed06E>:
133700003860: 55                       	pushq	%rbp
133700003861: 56                       	pushq	%rsi
133700003862: 48 81 ec b8 00 00 00     	subq	$0xb8, %rsp
133700003869: 48 8d ac 24 80 00 00 00  	leaq	0x80(%rsp), %rbp
133700003871: 48 8b 09                 	movq	(%rcx), %rcx
133700003874: 4c 8d 4d 38              	leaq	0x38(%rbp), %r9
133700003878: 31 c0                    	xorl	%eax, %eax
13370000387a: 49 89 c8                 	movq	%rcx, %r8
13370000387d: 0f 1f 00                 	nopl	(%rax)
133700003880: 49 c1 e8 04              	shrq	$0x4, %r8
133700003884: 41 89 ca                 	movl	%ecx, %r10d
133700003887: 41 80 e2 0f              	andb	$0xf, %r10b
13370000388b: 45 8d 5a 30              	leal	0x30(%r10), %r11d
13370000388f: 41 8d 72 37              	leal	0x37(%r10), %esi
133700003893: 41 80 fa 0a              	cmpb	$0xa, %r10b
133700003897: 45 0f b6 d3              	movzbl	%r11b, %r10d
13370000389b: 44 0f b6 de              	movzbl	%sil, %r11d
13370000389f: 45 0f 42 da              	cmovbl	%r10d, %r11d
1337000038a3: 45 88 59 ff              	movb	%r11b, -0x1(%r9)
1337000038a7: 49 ff c9                 	decq	%r9
1337000038aa: 48 ff c0                 	incq	%rax
1337000038ad: 48 83 f9 10              	cmpq	$0x10, %rcx
1337000038b1: 4c 89 c1                 	movq	%r8, %rcx
1337000038b4: 73 ca                    	jae	0x133700003880 <_ZN4core3fmt3num55_$LT$impl$u20$core..fmt..UpperHex$u20$for$u20$usize$GT$3fmt17hba906ac57025ed06E+0x20>
1337000038b6: b9 80 00 00 00           	movl	$0x80, %ecx
1337000038bb: 48 29 c1                 	subq	%rax, %rcx
1337000038be: 48 81 f9 81 00 00 00     	cmpq	$0x81, %rcx
1337000038c5: 73 2c                    	jae	0x1337000038f3 <_ZN4core3fmt3num55_$LT$impl$u20$core..fmt..UpperHex$u20$for$u20$usize$GT$3fmt17hba906ac57025ed06E+0x93>
1337000038c7: 48 89 44 24 28           	movq	%rax, 0x28(%rsp)
1337000038cc: 4c 89 4c 24 20           	movq	%r9, 0x20(%rsp)
1337000038d1: 4c 8d 05 78 19 00 00     	leaq	0x1978(%rip), %r8       # 0x133700005250 <anon.f5e50f8ee13097b708e82fd3a822e157.314>
1337000038d8: 41 b9 02 00 00 00        	movl	$0x2, %r9d
1337000038de: 48 89 d1                 	movq	%rdx, %rcx
1337000038e1: b2 01                    	movb	$0x1, %dl
1337000038e3: e8 58 e4 ff ff           	callq	0x133700001d40 <_ZN4core3fmt9Formatter12pad_integral17h2670696f36a93076E>
1337000038e8: 90                       	nop
1337000038e9: 48 81 c4 b8 00 00 00     	addq	$0xb8, %rsp
1337000038f0: 5e                       	popq	%rsi
1337000038f1: 5d                       	popq	%rbp
1337000038f2: c3                       	retq
1337000038f3: 4c 8d 05 3e 19 00 00     	leaq	0x193e(%rip), %r8       # 0x133700005238 <anon.f5e50f8ee13097b708e82fd3a822e157.313>
1337000038fa: ba 80 00 00 00           	movl	$0x80, %edx
1337000038ff: e8 0c 06 00 00           	callq	0x133700003f10 <_ZN4core5slice5index26slice_start_index_len_fail17h8dfa947fd6c17051E>
133700003904: cc                       	int3
133700003905: cc                       	int3
133700003906: cc                       	int3
133700003907: cc                       	int3
133700003908: cc                       	int3
133700003909: cc                       	int3
13370000390a: cc                       	int3
13370000390b: cc                       	int3
13370000390c: cc                       	int3
13370000390d: cc                       	int3
13370000390e: cc                       	int3
13370000390f: cc                       	int3

0000133700003910 <_ZN4core3fmt3num52_$LT$impl$u20$core..fmt..Debug$u20$for$u20$usize$GT$3fmt17h33e2a68da83d5eefE>:
133700003910: 55                       	pushq	%rbp
133700003911: 56                       	pushq	%rsi
133700003912: 57                       	pushq	%rdi
133700003913: 48 81 ec b0 00 00 00     	subq	$0xb0, %rsp
13370000391a: 48 8d ac 24 80 00 00 00  	leaq	0x80(%rsp), %rbp
133700003922: 8b 42 34                 	movl	0x34(%rdx), %eax
133700003925: a8 10                    	testb	$0x10, %al
133700003927: 0f 85 dd 00 00 00        	jne	0x133700003a0a <_ZN4core3fmt3num52_$LT$impl$u20$core..fmt..Debug$u20$for$u20$usize$GT$3fmt17h33e2a68da83d5eefE+0xfa>
13370000392d: a8 20                    	testb	$0x20, %al
13370000392f: 0f 85 23 01 00 00        	jne	0x133700003a58 <_ZN4core3fmt3num52_$LT$impl$u20$core..fmt..Debug$u20$for$u20$usize$GT$3fmt17h33e2a68da83d5eefE+0x148>
133700003935: 49 89 d1                 	movq	%rdx, %r9
133700003938: 48 8b 09                 	movq	(%rcx), %rcx
13370000393b: b8 27 00 00 00           	movl	$0x27, %eax
133700003940: 4c 8d 05 0b 19 00 00     	leaq	0x190b(%rip), %r8       # 0x133700005252 <anon.f5e50f8ee13097b708e82fd3a822e157.317>
133700003947: 48 81 f9 10 27 00 00     	cmpq	$0x2710, %rcx           # imm = 0x2710
13370000394e: 0f 82 81 01 00 00        	jb	0x133700003ad5 <_ZN4core3fmt3num52_$LT$impl$u20$core..fmt..Debug$u20$for$u20$usize$GT$3fmt17h33e2a68da83d5eefE+0x1c5>
133700003954: 41 bb 27 00 00 00        	movl	$0x27, %r11d
13370000395a: 49 ba 4b 59 86 38 d6 c5 6d 34    	movabsq	$0x346dc5d63886594b, %r10 # imm = 0x346DC5D63886594B
133700003964: 66 66 66 2e 0f 1f 84 00 00 00 00 00      	nopw	%cs:(%rax,%rax)
133700003970: 48 89 c8                 	movq	%rcx, %rax
133700003973: 49 f7 e2                 	mulq	%r10
133700003976: 48 c1 ea 0b              	shrq	$0xb, %rdx
13370000397a: 69 c2 10 27 00 00        	imull	$0x2710, %edx, %eax     # imm = 0x2710
133700003980: 89 ce                    	movl	%ecx, %esi
133700003982: 29 c6                    	subl	%eax, %esi
133700003984: 69 fe 7b 14 00 00        	imull	$0x147b, %esi, %edi     # imm = 0x147B
13370000398a: c1 ef 13                 	shrl	$0x13, %edi
13370000398d: 6b c7 64                 	imull	$0x64, %edi, %eax
133700003990: 29 c6                    	subl	%eax, %esi
133700003992: 0f b7 f6                 	movzwl	%si, %esi
133700003995: 49 8d 43 fc              	leaq	-0x4(%r11), %rax
133700003999: 41 0f b7 3c 78           	movzwl	(%r8,%rdi,2), %edi
13370000399e: 66 42 89 7c 1d ac        	movw	%di, -0x54(%rbp,%r11)
1337000039a4: 41 0f b7 34 70           	movzwl	(%r8,%rsi,2), %esi
1337000039a9: 66 42 89 74 1d ae        	movw	%si, -0x52(%rbp,%r11)
1337000039af: 49 89 c3                 	movq	%rax, %r11
1337000039b2: 48 81 f9 ff e0 f5 05     	cmpq	$0x5f5e0ff, %rcx        # imm = 0x5F5E0FF
1337000039b9: 48 89 d1                 	movq	%rdx, %rcx
1337000039bc: 77 b2                    	ja	0x133700003970 <_ZN4core3fmt3num52_$LT$impl$u20$core..fmt..Debug$u20$for$u20$usize$GT$3fmt17h33e2a68da83d5eefE+0x60>
1337000039be: 48 83 fa 63              	cmpq	$0x63, %rdx
1337000039c2: 76 2a                    	jbe	0x1337000039ee <_ZN4core3fmt3num52_$LT$impl$u20$core..fmt..Debug$u20$for$u20$usize$GT$3fmt17h33e2a68da83d5eefE+0xde>
1337000039c4: 0f b7 ca                 	movzwl	%dx, %ecx
1337000039c7: c1 e9 02                 	shrl	$0x2, %ecx
1337000039ca: 69 c9 7b 14 00 00        	imull	$0x147b, %ecx, %ecx     # imm = 0x147B
1337000039d0: c1 e9 11                 	shrl	$0x11, %ecx
1337000039d3: 44 6b d1 64              	imull	$0x64, %ecx, %r10d
1337000039d7: 44 29 d2                 	subl	%r10d, %edx
1337000039da: 0f b7 d2                 	movzwl	%dx, %edx
1337000039dd: 41 0f b7 14 50           	movzwl	(%r8,%rdx,2), %edx
1337000039e2: 66 89 54 05 ae           	movw	%dx, -0x52(%rbp,%rax)
1337000039e7: 48 83 c0 fe              	addq	$-0x2, %rax
1337000039eb: 48 89 ca                 	movq	%rcx, %rdx
1337000039ee: 4c 89 c9                 	movq	%r9, %rcx
1337000039f1: 48 83 fa 0a              	cmpq	$0xa, %rdx
1337000039f5: 0f 83 ec 00 00 00        	jae	0x133700003ae7 <_ZN4core3fmt3num52_$LT$impl$u20$core..fmt..Debug$u20$for$u20$usize$GT$3fmt17h33e2a68da83d5eefE+0x1d7>
1337000039fb: 80 ca 30                 	orb	$0x30, %dl
1337000039fe: 88 54 05 af              	movb	%dl, -0x51(%rbp,%rax)
133700003a02: 48 ff c8                 	decq	%rax
133700003a05: e9 eb 00 00 00           	jmp	0x133700003af5 <_ZN4core3fmt3num52_$LT$impl$u20$core..fmt..Debug$u20$for$u20$usize$GT$3fmt17h33e2a68da83d5eefE+0x1e5>
133700003a0a: 48 8b 09                 	movq	(%rcx), %rcx
133700003a0d: 4c 8d 4d 30              	leaq	0x30(%rbp), %r9
133700003a11: 31 c0                    	xorl	%eax, %eax
133700003a13: 49 89 c8                 	movq	%rcx, %r8
133700003a16: 66 2e 0f 1f 84 00 00 00 00 00    	nopw	%cs:(%rax,%rax)
133700003a20: 49 c1 e8 04              	shrq	$0x4, %r8
133700003a24: 41 89 ca                 	movl	%ecx, %r10d
133700003a27: 41 80 e2 0f              	andb	$0xf, %r10b
133700003a2b: 45 8d 5a 30              	leal	0x30(%r10), %r11d
133700003a2f: 41 8d 72 57              	leal	0x57(%r10), %esi
133700003a33: 41 80 fa 0a              	cmpb	$0xa, %r10b
133700003a37: 45 0f b6 d3              	movzbl	%r11b, %r10d
133700003a3b: 44 0f b6 de              	movzbl	%sil, %r11d
133700003a3f: 45 0f 42 da              	cmovbl	%r10d, %r11d
133700003a43: 45 88 59 ff              	movb	%r11b, -0x1(%r9)
133700003a47: 49 ff c9                 	decq	%r9
133700003a4a: 48 ff c0                 	incq	%rax
133700003a4d: 48 83 f9 10              	cmpq	$0x10, %rcx
133700003a51: 4c 89 c1                 	movq	%r8, %rcx
133700003a54: 73 ca                    	jae	0x133700003a20 <_ZN4core3fmt3num52_$LT$impl$u20$core..fmt..Debug$u20$for$u20$usize$GT$3fmt17h33e2a68da83d5eefE+0x110>
133700003a56: eb 4e                    	jmp	0x133700003aa6 <_ZN4core3fmt3num52_$LT$impl$u20$core..fmt..Debug$u20$for$u20$usize$GT$3fmt17h33e2a68da83d5eefE+0x196>
133700003a58: 48 8b 09                 	movq	(%rcx), %rcx
133700003a5b: 4c 8d 4d 30              	leaq	0x30(%rbp), %r9
133700003a5f: 31 c0                    	xorl	%eax, %eax
133700003a61: 49 89 c8                 	movq	%rcx, %r8
133700003a64: 66 66 66 2e 0f 1f 84 00 00 00 00 00      	nopw	%cs:(%rax,%rax)
133700003a70: 49 c1 e8 04              	shrq	$0x4, %r8
133700003a74: 41 89 ca                 	movl	%ecx, %r10d
133700003a77: 41 80 e2 0f              	andb	$0xf, %r10b
133700003a7b: 45 8d 5a 30              	leal	0x30(%r10), %r11d
133700003a7f: 41 8d 72 37              	leal	0x37(%r10), %esi
133700003a83: 41 80 fa 0a              	cmpb	$0xa, %r10b
133700003a87: 45 0f b6 d3              	movzbl	%r11b, %r10d
133700003a8b: 44 0f b6 de              	movzbl	%sil, %r11d
133700003a8f: 45 0f 42 da              	cmovbl	%r10d, %r11d
133700003a93: 45 88 59 ff              	movb	%r11b, -0x1(%r9)
133700003a97: 49 ff c9                 	decq	%r9
133700003a9a: 48 ff c0                 	incq	%rax
133700003a9d: 48 83 f9 10              	cmpq	$0x10, %rcx
133700003aa1: 4c 89 c1                 	movq	%r8, %rcx
133700003aa4: 73 ca                    	jae	0x133700003a70 <_ZN4core3fmt3num52_$LT$impl$u20$core..fmt..Debug$u20$for$u20$usize$GT$3fmt17h33e2a68da83d5eefE+0x160>
133700003aa6: b9 80 00 00 00           	movl	$0x80, %ecx
133700003aab: 48 29 c1                 	subq	%rax, %rcx
133700003aae: 48 81 f9 81 00 00 00     	cmpq	$0x81, %rcx
133700003ab5: 73 75                    	jae	0x133700003b2c <_ZN4core3fmt3num52_$LT$impl$u20$core..fmt..Debug$u20$for$u20$usize$GT$3fmt17h33e2a68da83d5eefE+0x21c>
133700003ab7: 48 89 44 24 28           	movq	%rax, 0x28(%rsp)
133700003abc: 4c 89 4c 24 20           	movq	%r9, 0x20(%rsp)
133700003ac1: 4c 8d 05 88 17 00 00     	leaq	0x1788(%rip), %r8       # 0x133700005250 <anon.f5e50f8ee13097b708e82fd3a822e157.314>
133700003ac8: 41 b9 02 00 00 00        	movl	$0x2, %r9d
133700003ace: 48 89 d1                 	movq	%rdx, %rcx
133700003ad1: b2 01                    	movb	$0x1, %dl
133700003ad3: eb 46                    	jmp	0x133700003b1b <_ZN4core3fmt3num52_$LT$impl$u20$core..fmt..Debug$u20$for$u20$usize$GT$3fmt17h33e2a68da83d5eefE+0x20b>
133700003ad5: 48 89 ca                 	movq	%rcx, %rdx
133700003ad8: 48 83 fa 63              	cmpq	$0x63, %rdx
133700003adc: 0f 87 e2 fe ff ff        	ja	0x1337000039c4 <_ZN4core3fmt3num52_$LT$impl$u20$core..fmt..Debug$u20$for$u20$usize$GT$3fmt17h33e2a68da83d5eefE+0xb4>
133700003ae2: e9 07 ff ff ff           	jmp	0x1337000039ee <_ZN4core3fmt3num52_$LT$impl$u20$core..fmt..Debug$u20$for$u20$usize$GT$3fmt17h33e2a68da83d5eefE+0xde>
133700003ae7: 41 0f b7 14 50           	movzwl	(%r8,%rdx,2), %edx
133700003aec: 66 89 54 05 ae           	movw	%dx, -0x52(%rbp,%rax)
133700003af1: 48 83 c0 fe              	addq	$-0x2, %rax
133700003af5: 48 8d 14 28              	leaq	(%rax,%rbp), %rdx
133700003af9: 48 83 c2 b0              	addq	$-0x50, %rdx
133700003afd: 41 b8 27 00 00 00        	movl	$0x27, %r8d
133700003b03: 49 29 c0                 	subq	%rax, %r8
133700003b06: 4c 89 44 24 28           	movq	%r8, 0x28(%rsp)
133700003b0b: 48 89 54 24 20           	movq	%rdx, 0x20(%rsp)
133700003b10: 41 b8 01 00 00 00        	movl	$0x1, %r8d
133700003b16: b2 01                    	movb	$0x1, %dl
133700003b18: 45 31 c9                 	xorl	%r9d, %r9d
133700003b1b: e8 20 e2 ff ff           	callq	0x133700001d40 <_ZN4core3fmt9Formatter12pad_integral17h2670696f36a93076E>
133700003b20: 90                       	nop
133700003b21: 48 81 c4 b0 00 00 00     	addq	$0xb0, %rsp
133700003b28: 5f                       	popq	%rdi
133700003b29: 5e                       	popq	%rsi
133700003b2a: 5d                       	popq	%rbp
133700003b2b: c3                       	retq
133700003b2c: 4c 8d 05 05 17 00 00     	leaq	0x1705(%rip), %r8       # 0x133700005238 <anon.f5e50f8ee13097b708e82fd3a822e157.313>
133700003b33: ba 80 00 00 00           	movl	$0x80, %edx
133700003b38: e8 d3 03 00 00           	callq	0x133700003f10 <_ZN4core5slice5index26slice_start_index_len_fail17h8dfa947fd6c17051E>
133700003b3d: cc                       	int3
133700003b3e: cc                       	int3
133700003b3f: cc                       	int3

0000133700003b40 <_ZN4core3fmt3num3imp54_$LT$impl$u20$core..fmt..Display$u20$for$u20$usize$GT$3fmt17hef09a08323db3a66E>:
133700003b40: 55                       	pushq	%rbp
133700003b41: 56                       	pushq	%rsi
133700003b42: 57                       	pushq	%rdi
133700003b43: 48 83 ec 60              	subq	$0x60, %rsp
133700003b47: 48 8d 6c 24 60           	leaq	0x60(%rsp), %rbp
133700003b4c: 49 89 d1                 	movq	%rdx, %r9
133700003b4f: 48 8b 09                 	movq	(%rcx), %rcx
133700003b52: b8 27 00 00 00           	movl	$0x27, %eax
133700003b57: 4c 8d 05 f4 16 00 00     	leaq	0x16f4(%rip), %r8       # 0x133700005252 <anon.f5e50f8ee13097b708e82fd3a822e157.317>
133700003b5e: 48 81 f9 10 27 00 00     	cmpq	$0x2710, %rcx           # imm = 0x2710
133700003b65: 0f 82 a5 00 00 00        	jb	0x133700003c10 <_ZN4core3fmt3num3imp54_$LT$impl$u20$core..fmt..Display$u20$for$u20$usize$GT$3fmt17hef09a08323db3a66E+0xd0>
133700003b6b: 41 bb 27 00 00 00        	movl	$0x27, %r11d
133700003b71: 49 ba 4b 59 86 38 d6 c5 6d 34    	movabsq	$0x346dc5d63886594b, %r10 # imm = 0x346DC5D63886594B
133700003b7b: 0f 1f 44 00 00           	nopl	(%rax,%rax)
133700003b80: 48 89 c8                 	movq	%rcx, %rax
133700003b83: 49 f7 e2                 	mulq	%r10
133700003b86: 48 c1 ea 0b              	shrq	$0xb, %rdx
133700003b8a: 69 c2 10 27 00 00        	imull	$0x2710, %edx, %eax     # imm = 0x2710
133700003b90: 89 ce                    	movl	%ecx, %esi
133700003b92: 29 c6                    	subl	%eax, %esi
133700003b94: 69 fe 7b 14 00 00        	imull	$0x147b, %esi, %edi     # imm = 0x147B
133700003b9a: c1 ef 13                 	shrl	$0x13, %edi
133700003b9d: 6b c7 64                 	imull	$0x64, %edi, %eax
133700003ba0: 29 c6                    	subl	%eax, %esi
133700003ba2: 0f b7 f6                 	movzwl	%si, %esi
133700003ba5: 49 8d 43 fc              	leaq	-0x4(%r11), %rax
133700003ba9: 41 0f b7 3c 78           	movzwl	(%r8,%rdi,2), %edi
133700003bae: 66 42 89 7c 1d d5        	movw	%di, -0x2b(%rbp,%r11)
133700003bb4: 41 0f b7 34 70           	movzwl	(%r8,%rsi,2), %esi
133700003bb9: 66 42 89 74 1d d7        	movw	%si, -0x29(%rbp,%r11)
133700003bbf: 49 89 c3                 	movq	%rax, %r11
133700003bc2: 48 81 f9 ff e0 f5 05     	cmpq	$0x5f5e0ff, %rcx        # imm = 0x5F5E0FF
133700003bc9: 48 89 d1                 	movq	%rdx, %rcx
133700003bcc: 77 b2                    	ja	0x133700003b80 <_ZN4core3fmt3num3imp54_$LT$impl$u20$core..fmt..Display$u20$for$u20$usize$GT$3fmt17hef09a08323db3a66E+0x40>
133700003bce: 48 83 fa 63              	cmpq	$0x63, %rdx
133700003bd2: 76 2a                    	jbe	0x133700003bfe <_ZN4core3fmt3num3imp54_$LT$impl$u20$core..fmt..Display$u20$for$u20$usize$GT$3fmt17hef09a08323db3a66E+0xbe>
133700003bd4: 0f b7 ca                 	movzwl	%dx, %ecx
133700003bd7: c1 e9 02                 	shrl	$0x2, %ecx
133700003bda: 69 c9 7b 14 00 00        	imull	$0x147b, %ecx, %ecx     # imm = 0x147B
133700003be0: c1 e9 11                 	shrl	$0x11, %ecx
133700003be3: 44 6b d1 64              	imull	$0x64, %ecx, %r10d
133700003be7: 44 29 d2                 	subl	%r10d, %edx
133700003bea: 0f b7 d2                 	movzwl	%dx, %edx
133700003bed: 41 0f b7 14 50           	movzwl	(%r8,%rdx,2), %edx
133700003bf2: 66 89 54 05 d7           	movw	%dx, -0x29(%rbp,%rax)
133700003bf7: 48 83 c0 fe              	addq	$-0x2, %rax
133700003bfb: 48 89 ca                 	movq	%rcx, %rdx
133700003bfe: 48 83 fa 0a              	cmpq	$0xa, %rdx
133700003c02: 73 17                    	jae	0x133700003c1b <_ZN4core3fmt3num3imp54_$LT$impl$u20$core..fmt..Display$u20$for$u20$usize$GT$3fmt17hef09a08323db3a66E+0xdb>
133700003c04: 80 ca 30                 	orb	$0x30, %dl
133700003c07: 88 54 05 d8              	movb	%dl, -0x28(%rbp,%rax)
133700003c0b: 48 ff c8                 	decq	%rax
133700003c0e: eb 19                    	jmp	0x133700003c29 <_ZN4core3fmt3num3imp54_$LT$impl$u20$core..fmt..Display$u20$for$u20$usize$GT$3fmt17hef09a08323db3a66E+0xe9>
133700003c10: 48 89 ca                 	movq	%rcx, %rdx
133700003c13: 48 83 fa 63              	cmpq	$0x63, %rdx
133700003c17: 77 bb                    	ja	0x133700003bd4 <_ZN4core3fmt3num3imp54_$LT$impl$u20$core..fmt..Display$u20$for$u20$usize$GT$3fmt17hef09a08323db3a66E+0x94>
133700003c19: eb e3                    	jmp	0x133700003bfe <_ZN4core3fmt3num3imp54_$LT$impl$u20$core..fmt..Display$u20$for$u20$usize$GT$3fmt17hef09a08323db3a66E+0xbe>
133700003c1b: 41 0f b7 0c 50           	movzwl	(%r8,%rdx,2), %ecx
133700003c20: 66 89 4c 05 d7           	movw	%cx, -0x29(%rbp,%rax)
133700003c25: 48 83 c0 fe              	addq	$-0x2, %rax
133700003c29: 48 8d 0c 28              	leaq	(%rax,%rbp), %rcx
133700003c2d: 48 83 c1 d9              	addq	$-0x27, %rcx
133700003c31: ba 27 00 00 00           	movl	$0x27, %edx
133700003c36: 48 29 c2                 	subq	%rax, %rdx
133700003c39: 48 89 54 24 28           	movq	%rdx, 0x28(%rsp)
133700003c3e: 48 89 4c 24 20           	movq	%rcx, 0x20(%rsp)
133700003c43: 41 b8 01 00 00 00        	movl	$0x1, %r8d
133700003c49: 4c 89 c9                 	movq	%r9, %rcx
133700003c4c: b2 01                    	movb	$0x1, %dl
133700003c4e: 45 31 c9                 	xorl	%r9d, %r9d
133700003c51: e8 ea e0 ff ff           	callq	0x133700001d40 <_ZN4core3fmt9Formatter12pad_integral17h2670696f36a93076E>
133700003c56: 90                       	nop
133700003c57: 48 83 c4 60              	addq	$0x60, %rsp
133700003c5b: 5f                       	popq	%rdi
133700003c5c: 5e                       	popq	%rsi
133700003c5d: 5d                       	popq	%rbp
133700003c5e: c3                       	retq
133700003c5f: cc                       	int3

0000133700003c60 <_ZN44_$LT$$RF$T$u20$as$u20$core..fmt..Display$GT$3fmt17h7c8bfe175265d571E>:
133700003c60: 55                       	pushq	%rbp
133700003c61: 48 89 e5                 	movq	%rsp, %rbp
133700003c64: 48 89 d0                 	movq	%rdx, %rax
133700003c67: 48 8b 11                 	movq	(%rcx), %rdx
133700003c6a: 4c 8b 41 08              	movq	0x8(%rcx), %r8
133700003c6e: 48 89 c1                 	movq	%rax, %rcx
133700003c71: 5d                       	popq	%rbp
133700003c72: e9 39 e6 ff ff           	jmp	0x1337000022b0 <_ZN4core3fmt9Formatter3pad17hceca36268d3ff455E>
133700003c77: cc                       	int3
133700003c78: cc                       	int3
133700003c79: cc                       	int3
133700003c7a: cc                       	int3
133700003c7b: cc                       	int3
133700003c7c: cc                       	int3
133700003c7d: cc                       	int3
133700003c7e: cc                       	int3
133700003c7f: cc                       	int3

0000133700003c80 <_ZN4core7unicode12unicode_data15grapheme_extend11lookup_slow17h1169c8984d610c5cE>:
133700003c80: 55                       	pushq	%rbp
133700003c81: 48 83 ec 20              	subq	$0x20, %rsp
133700003c85: 48 8d 6c 24 20           	leaq	0x20(%rsp), %rbp
133700003c8a: 45 31 c0                 	xorl	%r8d, %r8d
133700003c8d: 81 f9 ab 0e 01 00        	cmpl	$0x10eab, %ecx          # imm = 0x10EAB
133700003c93: 41 0f 93 c0              	setae	%r8b
133700003c97: 89 c8                    	movl	%ecx, %eax
133700003c99: c1 e0 0b                 	shll	$0xb, %eax
133700003c9c: 41 c1 e0 04              	shll	$0x4, %r8d
133700003ca0: 4d 8d 48 08              	leaq	0x8(%r8), %r9
133700003ca4: 48 8d 15 15 1f 00 00     	leaq	0x1f15(%rip), %rdx      # 0x133700005bc0 <_ZN4core7unicode12unicode_data15grapheme_extend17SHORT_OFFSET_RUNS17hcd502afc10353428E>
133700003cab: 46 8b 54 82 20           	movl	0x20(%rdx,%r8,4), %r10d
133700003cb0: 41 c1 e2 0b              	shll	$0xb, %r10d
133700003cb4: 41 39 c2                 	cmpl	%eax, %r10d
133700003cb7: 4d 0f 47 c8              	cmovaq	%r8, %r9
133700003cbb: 4d 8d 41 04              	leaq	0x4(%r9), %r8
133700003cbf: 46 8b 54 8a 10           	movl	0x10(%rdx,%r9,4), %r10d
133700003cc4: 41 c1 e2 0b              	shll	$0xb, %r10d
133700003cc8: 41 39 c2                 	cmpl	%eax, %r10d
133700003ccb: 4d 0f 47 c1              	cmovaq	%r9, %r8
133700003ccf: 4d 8d 48 02              	leaq	0x2(%r8), %r9
133700003cd3: 46 8b 54 82 08           	movl	0x8(%rdx,%r8,4), %r10d
133700003cd8: 41 c1 e2 0b              	shll	$0xb, %r10d
133700003cdc: 41 39 c2                 	cmpl	%eax, %r10d
133700003cdf: 4d 0f 47 c8              	cmovaq	%r8, %r9
133700003ce3: 4d 8d 41 01              	leaq	0x1(%r9), %r8
133700003ce7: 46 8b 54 8a 04           	movl	0x4(%rdx,%r9,4), %r10d
133700003cec: 41 c1 e2 0b              	shll	$0xb, %r10d
133700003cf0: 41 39 c2                 	cmpl	%eax, %r10d
133700003cf3: 4d 0f 47 c1              	cmovaq	%r9, %r8
133700003cf7: 4d 8d 50 01              	leaq	0x1(%r8), %r10
133700003cfb: 46 8b 4c 82 04           	movl	0x4(%rdx,%r8,4), %r9d
133700003d00: 41 c1 e1 0b              	shll	$0xb, %r9d
133700003d04: 41 39 c1                 	cmpl	%eax, %r9d
133700003d07: 4d 0f 47 d0              	cmovaq	%r8, %r10
133700003d0b: 46 8b 04 92              	movl	(%rdx,%r10,4), %r8d
133700003d0f: 41 c1 e0 0b              	shll	$0xb, %r8d
133700003d13: 45 31 c9                 	xorl	%r9d, %r9d
133700003d16: 41 39 c0                 	cmpl	%eax, %r8d
133700003d19: 41 0f 94 c1              	sete	%r9b
133700003d1d: 4d 11 d1                 	adcq	%r10, %r9
133700003d20: 49 83 f9 20              	cmpq	$0x20, %r9
133700003d24: 0f 87 b3 00 00 00        	ja	0x133700003ddd <_ZN4core7unicode12unicode_data15grapheme_extend11lookup_slow17h1169c8984d610c5cE+0x15d>
133700003d2a: 42 8b 04 8a              	movl	(%rdx,%r9,4), %eax
133700003d2e: c1 e8 15                 	shrl	$0x15, %eax
133700003d31: 41 b8 d7 02 00 00        	movl	$0x2d7, %r8d            # imm = 0x2D7
133700003d37: 49 83 f9 20              	cmpq	$0x20, %r9
133700003d3b: 74 0e                    	je	0x133700003d4b <_ZN4core7unicode12unicode_data15grapheme_extend11lookup_slow17h1169c8984d610c5cE+0xcb>
133700003d3d: 46 8b 44 8a 04           	movl	0x4(%rdx,%r9,4), %r8d
133700003d42: 41 c1 e8 15              	shrl	$0x15, %r8d
133700003d46: 4d 85 c9                 	testq	%r9, %r9
133700003d49: 74 62                    	je	0x133700003dad <_ZN4core7unicode12unicode_data15grapheme_extend11lookup_slow17h1169c8984d610c5cE+0x12d>
133700003d4b: 41 ba ff ff 1f 00        	movl	$0x1fffff, %r10d        # imm = 0x1FFFFF
133700003d51: 46 23 54 8a fc           	andl	-0x4(%rdx,%r9,4), %r10d
133700003d56: 48 89 c2                 	movq	%rax, %rdx
133700003d59: 48 f7 d2                 	notq	%rdx
133700003d5c: 4c 01 c2                 	addq	%r8, %rdx
133700003d5f: 74 44                    	je	0x133700003da5 <_ZN4core7unicode12unicode_data15grapheme_extend11lookup_slow17h1169c8984d610c5cE+0x125>
133700003d61: 44 29 d1                 	subl	%r10d, %ecx
133700003d64: 49 ff c8                 	decq	%r8
133700003d67: 31 d2                    	xorl	%edx, %edx
133700003d69: 4c 8d 15 d4 1e 00 00     	leaq	0x1ed4(%rip), %r10      # 0x133700005c44 <_ZN4core7unicode12unicode_data15grapheme_extend7OFFSETS17hcba0531d78504049E>
133700003d70: 49 89 c1                 	movq	%rax, %r9
133700003d73: 66 66 66 66 2e 0f 1f 84 00 00 00 00 00   	nopw	%cs:(%rax,%rax)
133700003d80: 49 81 f9 d6 02 00 00     	cmpq	$0x2d6, %r9             # imm = 0x2D6
133700003d87: 77 34                    	ja	0x133700003dbd <_ZN4core7unicode12unicode_data15grapheme_extend11lookup_slow17h1169c8984d610c5cE+0x13d>
133700003d89: 47 0f b6 1c 11           	movzbl	(%r9,%r10), %r11d
133700003d8e: 44 01 da                 	addl	%r11d, %edx
133700003d91: 39 ca                    	cmpl	%ecx, %edx
133700003d93: 77 0d                    	ja	0x133700003da2 <_ZN4core7unicode12unicode_data15grapheme_extend11lookup_slow17h1169c8984d610c5cE+0x122>
133700003d95: 49 ff c1                 	incq	%r9
133700003d98: 4d 39 c8                 	cmpq	%r9, %r8
133700003d9b: 75 e3                    	jne	0x133700003d80 <_ZN4core7unicode12unicode_data15grapheme_extend11lookup_slow17h1169c8984d610c5cE+0x100>
133700003d9d: 4c 89 c0                 	movq	%r8, %rax
133700003da0: eb 03                    	jmp	0x133700003da5 <_ZN4core7unicode12unicode_data15grapheme_extend11lookup_slow17h1169c8984d610c5cE+0x125>
133700003da2: 4c 89 c8                 	movq	%r9, %rax
133700003da5: 24 01                    	andb	$0x1, %al
133700003da7: 48 83 c4 20              	addq	$0x20, %rsp
133700003dab: 5d                       	popq	%rbp
133700003dac: c3                       	retq
133700003dad: 45 31 d2                 	xorl	%r10d, %r10d
133700003db0: 48 89 c2                 	movq	%rax, %rdx
133700003db3: 48 f7 d2                 	notq	%rdx
133700003db6: 4c 01 c2                 	addq	%r8, %rdx
133700003db9: 75 a6                    	jne	0x133700003d61 <_ZN4core7unicode12unicode_data15grapheme_extend11lookup_slow17h1169c8984d610c5cE+0xe1>
133700003dbb: eb e8                    	jmp	0x133700003da5 <_ZN4core7unicode12unicode_data15grapheme_extend11lookup_slow17h1169c8984d610c5cE+0x125>
133700003dbd: 48 3d d8 02 00 00        	cmpq	$0x2d8, %rax            # imm = 0x2D8
133700003dc3: b9 d7 02 00 00           	movl	$0x2d7, %ecx            # imm = 0x2D7
133700003dc8: 48 0f 43 c8              	cmovaeq	%rax, %rcx
133700003dcc: 4c 8d 05 d5 1d 00 00     	leaq	0x1dd5(%rip), %r8       # 0x133700005ba8 <anon.f5e50f8ee13097b708e82fd3a822e157.430>
133700003dd3: ba d7 02 00 00           	movl	$0x2d7, %edx            # imm = 0x2D7
133700003dd8: e8 c3 00 00 00           	callq	0x133700003ea0 <_ZN4core9panicking18panic_bounds_check17he8339747b045d839E>
133700003ddd: 4c 8d 05 ac 1d 00 00     	leaq	0x1dac(%rip), %r8       # 0x133700005b90 <anon.f5e50f8ee13097b708e82fd3a822e157.429>
133700003de4: ba 21 00 00 00           	movl	$0x21, %edx
133700003de9: 4c 89 c9                 	movq	%r9, %rcx
133700003dec: e8 af 00 00 00           	callq	0x133700003ea0 <_ZN4core9panicking18panic_bounds_check17he8339747b045d839E>
133700003df1: cc                       	int3
133700003df2: cc                       	int3
133700003df3: cc                       	int3
133700003df4: cc                       	int3
133700003df5: cc                       	int3
133700003df6: cc                       	int3
133700003df7: cc                       	int3
133700003df8: cc                       	int3
133700003df9: cc                       	int3
133700003dfa: cc                       	int3
133700003dfb: cc                       	int3
133700003dfc: cc                       	int3
133700003dfd: cc                       	int3
133700003dfe: cc                       	int3
133700003dff: cc                       	int3

0000133700003e00 <_ZN4core6option13unwrap_failed17h38cc4d172d0f7208E>:
133700003e00: 55                       	pushq	%rbp
133700003e01: 48 83 ec 20              	subq	$0x20, %rsp
133700003e05: 48 8d 6c 24 20           	leaq	0x20(%rsp), %rbp
133700003e0a: 49 89 c8                 	movq	%rcx, %r8
133700003e0d: 48 8d 0d 8e 13 00 00     	leaq	0x138e(%rip), %rcx      # 0x1337000051a2 <anon.f5e50f8ee13097b708e82fd3a822e157.250>
133700003e14: ba 2b 00 00 00           	movl	$0x2b, %edx
133700003e19: e8 42 00 00 00           	callq	0x133700003e60 <_ZN4core9panicking5panic17h9dca278fc493133fE>
133700003e1e: cc                       	int3
133700003e1f: cc                       	int3

0000133700003e20 <_ZN4core9panicking9panic_fmt17h1dd2a59cf4445dd4E>:
133700003e20: 55                       	pushq	%rbp
133700003e21: 48 83 ec 60              	subq	$0x60, %rsp
133700003e25: 48 8d 6c 24 60           	leaq	0x60(%rsp), %rbp
133700003e2a: 0f 10 01                 	movups	(%rcx), %xmm0
133700003e2d: 0f 10 49 10              	movups	0x10(%rcx), %xmm1
133700003e31: 0f 10 51 20              	movups	0x20(%rcx), %xmm2
133700003e35: 0f 29 55 e0              	movaps	%xmm2, -0x20(%rbp)
133700003e39: 0f 29 4d d0              	movaps	%xmm1, -0x30(%rbp)
133700003e3d: 0f 29 45 c0              	movaps	%xmm0, -0x40(%rbp)
133700003e41: 48 89 55 f0              	movq	%rdx, -0x10(%rbp)
133700003e45: 66 c7 45 f8 01 00        	movw	$0x1, -0x8(%rbp)
133700003e4b: 48 8d 4d c0              	leaq	-0x40(%rbp), %rcx
133700003e4f: e8 cc d4 ff ff           	callq	0x133700001320 <rust_begin_unwind>
133700003e54: cc                       	int3
133700003e55: cc                       	int3
133700003e56: cc                       	int3
133700003e57: cc                       	int3
133700003e58: cc                       	int3
133700003e59: cc                       	int3
133700003e5a: cc                       	int3
133700003e5b: cc                       	int3
133700003e5c: cc                       	int3
133700003e5d: cc                       	int3
133700003e5e: cc                       	int3
133700003e5f: cc                       	int3

0000133700003e60 <_ZN4core9panicking5panic17h9dca278fc493133fE>:
133700003e60: 55                       	pushq	%rbp
133700003e61: 48 83 ec 60              	subq	$0x60, %rsp
133700003e65: 48 8d 6c 24 60           	leaq	0x60(%rsp), %rbp
133700003e6a: 48 89 4d f0              	movq	%rcx, -0x10(%rbp)
133700003e6e: 48 89 55 f8              	movq	%rdx, -0x8(%rbp)
133700003e72: 48 8d 45 f0              	leaq	-0x10(%rbp), %rax
133700003e76: 48 89 45 c0              	movq	%rax, -0x40(%rbp)
133700003e7a: 48 c7 45 c8 01 00 00 00  	movq	$0x1, -0x38(%rbp)
133700003e82: 48 c7 45 d0 08 00 00 00  	movq	$0x8, -0x30(%rbp)
133700003e8a: 0f 57 c0                 	xorps	%xmm0, %xmm0
133700003e8d: 0f 11 45 d8              	movups	%xmm0, -0x28(%rbp)
133700003e91: 48 8d 4d c0              	leaq	-0x40(%rbp), %rcx
133700003e95: 4c 89 c2                 	movq	%r8, %rdx
133700003e98: e8 83 ff ff ff           	callq	0x133700003e20 <_ZN4core9panicking9panic_fmt17h1dd2a59cf4445dd4E>
133700003e9d: cc                       	int3
133700003e9e: cc                       	int3
133700003e9f: cc                       	int3

0000133700003ea0 <_ZN4core9panicking18panic_bounds_check17he8339747b045d839E>:
133700003ea0: 55                       	pushq	%rbp
133700003ea1: 48 81 ec 80 00 00 00     	subq	$0x80, %rsp
133700003ea8: 48 8d ac 24 80 00 00 00  	leaq	0x80(%rsp), %rbp
133700003eb0: 48 89 4d f8              	movq	%rcx, -0x8(%rbp)
133700003eb4: 48 89 55 f0              	movq	%rdx, -0x10(%rbp)
133700003eb8: 48 8d 45 f0              	leaq	-0x10(%rbp), %rax
133700003ebc: 48 89 45 d0              	movq	%rax, -0x30(%rbp)
133700003ec0: 48 8d 05 79 fc ff ff     	leaq	-0x387(%rip), %rax      # 0x133700003b40 <_ZN4core3fmt3num3imp54_$LT$impl$u20$core..fmt..Display$u20$for$u20$usize$GT$3fmt17hef09a08323db3a66E>
133700003ec7: 48 89 45 d8              	movq	%rax, -0x28(%rbp)
133700003ecb: 48 8d 4d f8              	leaq	-0x8(%rbp), %rcx
133700003ecf: 48 89 4d e0              	movq	%rcx, -0x20(%rbp)
133700003ed3: 48 89 45 e8              	movq	%rax, -0x18(%rbp)
133700003ed7: 48 8d 05 22 13 00 00     	leaq	0x1322(%rip), %rax      # 0x133700005200 <anon.f5e50f8ee13097b708e82fd3a822e157.261>
133700003ede: 48 89 45 a0              	movq	%rax, -0x60(%rbp)
133700003ee2: 48 c7 45 a8 02 00 00 00  	movq	$0x2, -0x58(%rbp)
133700003eea: 48 c7 45 c0 00 00 00 00  	movq	$0x0, -0x40(%rbp)
133700003ef2: 48 8d 45 d0              	leaq	-0x30(%rbp), %rax
133700003ef6: 48 89 45 b0              	movq	%rax, -0x50(%rbp)
133700003efa: 48 c7 45 b8 02 00 00 00  	movq	$0x2, -0x48(%rbp)
133700003f02: 48 8d 4d a0              	leaq	-0x60(%rbp), %rcx
133700003f06: 4c 89 c2                 	movq	%r8, %rdx
133700003f09: e8 12 ff ff ff           	callq	0x133700003e20 <_ZN4core9panicking9panic_fmt17h1dd2a59cf4445dd4E>
133700003f0e: cc                       	int3
133700003f0f: cc                       	int3

0000133700003f10 <_ZN4core5slice5index26slice_start_index_len_fail17h8dfa947fd6c17051E>:
133700003f10: 55                       	pushq	%rbp
133700003f11: 48 81 ec 80 00 00 00     	subq	$0x80, %rsp
133700003f18: 48 8d ac 24 80 00 00 00  	leaq	0x80(%rsp), %rbp
133700003f20: 48 89 4d f8              	movq	%rcx, -0x8(%rbp)
133700003f24: 48 89 55 f0              	movq	%rdx, -0x10(%rbp)
133700003f28: 48 8d 45 f8              	leaq	-0x8(%rbp), %rax
133700003f2c: 48 89 45 d0              	movq	%rax, -0x30(%rbp)
133700003f30: 48 8d 05 09 fc ff ff     	leaq	-0x3f7(%rip), %rax      # 0x133700003b40 <_ZN4core3fmt3num3imp54_$LT$impl$u20$core..fmt..Display$u20$for$u20$usize$GT$3fmt17hef09a08323db3a66E>
133700003f37: 48 89 45 d8              	movq	%rax, -0x28(%rbp)
133700003f3b: 48 8d 4d f0              	leaq	-0x10(%rbp), %rcx
133700003f3f: 48 89 4d e0              	movq	%rcx, -0x20(%rbp)
133700003f43: 48 89 45 e8              	movq	%rax, -0x18(%rbp)
133700003f47: 48 8d 05 4a 14 00 00     	leaq	0x144a(%rip), %rax      # 0x133700005398 <anon.f5e50f8ee13097b708e82fd3a822e157.343>
133700003f4e: 48 89 45 a0              	movq	%rax, -0x60(%rbp)
133700003f52: 48 c7 45 a8 02 00 00 00  	movq	$0x2, -0x58(%rbp)
133700003f5a: 48 c7 45 c0 00 00 00 00  	movq	$0x0, -0x40(%rbp)
133700003f62: 48 8d 45 d0              	leaq	-0x30(%rbp), %rax
133700003f66: 48 89 45 b0              	movq	%rax, -0x50(%rbp)
133700003f6a: 48 c7 45 b8 02 00 00 00  	movq	$0x2, -0x48(%rbp)
133700003f72: 48 8d 4d a0              	leaq	-0x60(%rbp), %rcx
133700003f76: 4c 89 c2                 	movq	%r8, %rdx
133700003f79: e8 a2 fe ff ff           	callq	0x133700003e20 <_ZN4core9panicking9panic_fmt17h1dd2a59cf4445dd4E>
133700003f7e: cc                       	int3
133700003f7f: cc                       	int3

0000133700003f80 <_ZN4core5slice5index24slice_end_index_len_fail17hc6e1761969869448E>:
133700003f80: 55                       	pushq	%rbp
133700003f81: 48 81 ec 80 00 00 00     	subq	$0x80, %rsp
133700003f88: 48 8d ac 24 80 00 00 00  	leaq	0x80(%rsp), %rbp
133700003f90: 48 89 4d f8              	movq	%rcx, -0x8(%rbp)
133700003f94: 48 89 55 f0              	movq	%rdx, -0x10(%rbp)
133700003f98: 48 8d 45 f8              	leaq	-0x8(%rbp), %rax
133700003f9c: 48 89 45 d0              	movq	%rax, -0x30(%rbp)
133700003fa0: 48 8d 05 99 fb ff ff     	leaq	-0x467(%rip), %rax      # 0x133700003b40 <_ZN4core3fmt3num3imp54_$LT$impl$u20$core..fmt..Display$u20$for$u20$usize$GT$3fmt17hef09a08323db3a66E>
133700003fa7: 48 89 45 d8              	movq	%rax, -0x28(%rbp)
133700003fab: 48 8d 4d f0              	leaq	-0x10(%rbp), %rcx
133700003faf: 48 89 4d e0              	movq	%rcx, -0x20(%rbp)
133700003fb3: 48 89 45 e8              	movq	%rax, -0x18(%rbp)
133700003fb7: 48 8d 05 0a 14 00 00     	leaq	0x140a(%rip), %rax      # 0x1337000053c8 <anon.f5e50f8ee13097b708e82fd3a822e157.345>
133700003fbe: 48 89 45 a0              	movq	%rax, -0x60(%rbp)
133700003fc2: 48 c7 45 a8 02 00 00 00  	movq	$0x2, -0x58(%rbp)
133700003fca: 48 c7 45 c0 00 00 00 00  	movq	$0x0, -0x40(%rbp)
133700003fd2: 48 8d 45 d0              	leaq	-0x30(%rbp), %rax
133700003fd6: 48 89 45 b0              	movq	%rax, -0x50(%rbp)
133700003fda: 48 c7 45 b8 02 00 00 00  	movq	$0x2, -0x48(%rbp)
133700003fe2: 48 8d 4d a0              	leaq	-0x60(%rbp), %rcx
133700003fe6: 4c 89 c2                 	movq	%r8, %rdx
133700003fe9: e8 32 fe ff ff           	callq	0x133700003e20 <_ZN4core9panicking9panic_fmt17h1dd2a59cf4445dd4E>
133700003fee: cc                       	int3
133700003fef: cc                       	int3

0000133700003ff0 <_ZN4core5slice5index22slice_index_order_fail17h95f96c65778ac354E>:
133700003ff0: 55                       	pushq	%rbp
133700003ff1: 48 81 ec 80 00 00 00     	subq	$0x80, %rsp
133700003ff8: 48 8d ac 24 80 00 00 00  	leaq	0x80(%rsp), %rbp
133700004000: 48 89 4d f8              	movq	%rcx, -0x8(%rbp)
133700004004: 48 89 55 f0              	movq	%rdx, -0x10(%rbp)
133700004008: 48 8d 45 f8              	leaq	-0x8(%rbp), %rax
13370000400c: 48 89 45 d0              	movq	%rax, -0x30(%rbp)
133700004010: 48 8d 05 29 fb ff ff     	leaq	-0x4d7(%rip), %rax      # 0x133700003b40 <_ZN4core3fmt3num3imp54_$LT$impl$u20$core..fmt..Display$u20$for$u20$usize$GT$3fmt17hef09a08323db3a66E>
133700004017: 48 89 45 d8              	movq	%rax, -0x28(%rbp)
13370000401b: 48 8d 4d f0              	leaq	-0x10(%rbp), %rcx
13370000401f: 48 89 4d e0              	movq	%rcx, -0x20(%rbp)
133700004023: 48 89 45 e8              	movq	%rax, -0x18(%rbp)
133700004027: 48 8d 05 e2 13 00 00     	leaq	0x13e2(%rip), %rax      # 0x133700005410 <anon.f5e50f8ee13097b708e82fd3a822e157.348>
13370000402e: 48 89 45 a0              	movq	%rax, -0x60(%rbp)
133700004032: 48 c7 45 a8 02 00 00 00  	movq	$0x2, -0x58(%rbp)
13370000403a: 48 c7 45 c0 00 00 00 00  	movq	$0x0, -0x40(%rbp)
133700004042: 48 8d 45 d0              	leaq	-0x30(%rbp), %rax
133700004046: 48 89 45 b0              	movq	%rax, -0x50(%rbp)
13370000404a: 48 c7 45 b8 02 00 00 00  	movq	$0x2, -0x48(%rbp)
133700004052: 48 8d 4d a0              	leaq	-0x60(%rbp), %rcx
133700004056: 4c 89 c2                 	movq	%r8, %rdx
133700004059: e8 c2 fd ff ff           	callq	0x133700003e20 <_ZN4core9panicking9panic_fmt17h1dd2a59cf4445dd4E>
13370000405e: cc                       	int3
13370000405f: cc                       	int3

0000133700004060 <_ZN4core3str16slice_error_fail17h1e5d268cd08b78cdE>:
133700004060: 55                       	pushq	%rbp
133700004061: 48 83 ec 30              	subq	$0x30, %rsp
133700004065: 48 8d 6c 24 30           	leaq	0x30(%rsp), %rbp
13370000406a: 48 8b 45 30              	movq	0x30(%rbp), %rax
13370000406e: 48 89 44 24 20           	movq	%rax, 0x20(%rsp)
133700004073: e8 d8 f0 ff ff           	callq	0x133700003150 <_ZN4core3str19slice_error_fail_rt17hac817e22ee790988E>
133700004078: cc                       	int3
